ccopy_reg
_reconstructor
p0
(cnltk.classify.naivebayes
NaiveBayesClassifier
p1
c__builtin__
object
p2
Ntp3
Rp4
(dp5
S'_labels'
p6
(lp7
S'non-question'
p8
aS'question'
p9
asS'_feature_probdist'
p10
(dp11
(g9
S'has_question_mark'
p12
tp13
g0
(cnltk.probability
ELEProbDist
p14
g2
Ntp15
Rp16
(dp17
S'_gamma'
p18
F0.5
sS'_N'
p19
I185
sS'_freqdist'
p20
cnltk.probability
FreqDist
p21
((dp22
I00
I1
sI01
I184
stp23
Rp24
sS'_bins'
p25
I2
sS'_divisor'
p26
F186.0
sbs(g8
g12
tp27
g0
(g14
g2
Ntp28
Rp29
(dp30
g18
F0.5
sg19
I7788
sg20
g21
((dp31
I00
I7543
sI01
I245
stp32
Rp33
sg25
I2
sg26
F7789.0
sbs(g9
S'first_words'
p34
tp35
g0
(g14
g2
Ntp36
Rp37
(dp38
g18
F0.5
sg19
I185
sg20
g21
((dp39
Vwho was
p40
I5
sVwhat currency
p41
I1
sVwhat s
p42
I5
sVwhat u
p43
I1
sVwhere can
p44
I1
sVwhat cathedral
p45
I1
sVwhat causes
p46
I1
sVwhich presidents
p47
I1
sVwhich magazine
p48
I1
sVwho died
p49
I1
sVwhen did
p50
I4
sVwhat corporation
p51
I1
sVwhat did
p52
I2
sVwhat sport
p53
I1
sVnames of
p54
I1
sVwho is
p55
I3
sVwhy do
p56
I1
sVwhat nationality
p57
I1
sVwhat month
p58
I1
sVwhat argentine
p59
I1
sVwhich is
p60
I1
sVwhat comedienne
p61
I1
sVwhy are
p62
I2
sVhow old
p63
I1
sVwhat company
p64
I1
sVwhat george
p65
I1
sVwhat are
p66
I4
sVhow long
p67
I2
sVhow can
p68
I2
sVwhat year
p69
I1
sVwhat kind
p70
I1
sVwhat king
p71
I1
sVwhat airport
p72
I1
sVwhat botanical
p73
I1
sVin what
p74
I2
sVwhat people
p75
I1
sVhow fast
p76
I1
sVhow much
p77
I3
sVwhat effect
p78
I1
sVwhere is
p79
I3
sVwhat is
p80
I30
sVwhat name
p81
I1
sVhow many
p82
I10
sVwhat peruvian
p83
I1
sVwhat two
p84
I2
sVwhat planet
p85
I1
sVwhere were
p86
I1
sVwhat major
p87
I1
sVwhat director
p88
I1
sVwhat south
p89
I1
sVwhat magazine
p90
I1
sVwhat colorful
p91
I1
sVwhat has
p92
I1
sVwhat strait
p93
I1
sVwhat multitalented
p94
I1
sVeverest
p95
I1
sVwho played
p96
I2
sVwhat character
p97
I1
sVwhen does
p98
I1
sVwhat store
p99
I1
sVon what
p100
I1
sVwhat was
p101
I5
sVwhere did
p102
I1
sVwhat must
p103
I1
sVwhat does
p104
I4
sVwhat state
p105
I2
sVwhat famous
p106
I2
sVwhat english
p107
I1
sVwho made
p108
I1
sVwho followed
p109
I1
sVwhat shakespearean
p110
I1
sVwhat president
p111
I2
sVwhat kennedy
p112
I1
sVwhat should
p113
I1
sVhow do
p114
I1
sVwhy was
p115
I1
sVwho won
p116
I1
sVwhat european
p117
I1
sVwhat ocean
p118
I1
sVwhat shape
p119
I1
sVwhere on
p120
I1
sVhow does
p121
I1
sVwhich police
p122
I1
sVwhat city
p123
I2
sVwhere was
p124
I1
sVwhat do
p125
I4
sVwhat country
p126
I2
sVwho told
p127
I1
sVwhat features
p128
I1
sVwhat happened
p129
I1
sVwhat words
p130
I1
sVwhat made
p131
I1
sVwhat fruit
p132
I1
sVwhen was
p133
I5
sVwhat creative
p134
I1
sVwhat flag
p135
I1
sVwho used
p136
I1
sVhow deep
p137
I2
sVwhat pope
p138
I1
sVwhat money
p139
I1
stp140
Rp141
sg25
I2824
sg26
F1597.0
sbs(g9
S'last_words'
p142
tp143
g0
(g14
g2
Ntp144
Rp145
(dp146
g18
F0.5
sg19
I185
sg20
g21
((dp147
Vand radio
p148
I1
sVterata have
p149
I1
sVto back
p150
I1
sVmultilingual schools
p151
I1
sVwake island
p152
I1
sVc between
p153
I1
sVficus produce
p154
I1
sVmay 1994
p155
I1
sVthe rifleman
p156
I1
sVown webpage
p157
I1
sVnfl rulebook
p158
I1
sVlived near
p159
I1
sVthe brain
p160
I1
sVoriginally from
p161
I1
sVa fathom
p162
I2
sVthe world
p163
I1
sVbirth defects
p164
I1
sVamerica contest
p165
I1
sVp m
p166
I1
sVs rock
p167
I1
sVas baby
p168
I1
sVall die
p169
I1
sVto another
p170
I1
sVconditioner efficiency
p171
I1
sVhitting streak
p172
I1
sVcavaliers play
p173
I1
sVcommon compound
p174
I1
sVnot 1985
p175
I1
sVof hispaniola
p176
I1
sVwhile dating
p177
I1
sVcarter play
p178
I1
sV8th graders
p179
I1
sV15 1969
p180
I1
sVin china
p181
I1
sVhis lifetime
p182
I1
sVbuy her
p183
I1
sVbuffalo bill
p184
I1
sVsydney australia
p185
I1
sVmurdered in
p186
I1
sVsonic boom
p187
I1
sVfollowing locations
p188
I1
sVcultivated plant
p189
I1
sVof bolivia
p190
I1
sVindian elephant
p191
I1
sVand 1983
p192
I1
sVfrancisco pizarro
p193
I1
sVthe philippines
p194
I1
sVpark in
p195
I1
sVcorporate offices
p196
I1
sVnamed virginia
p197
I1
sVin 1975
p198
I1
sVs population
p199
I1
sVin 1978
p200
I1
sVwindow made
p201
I1
sVtraining exercise
p202
I1
sVe levine
p203
I1
sVlogan international
p204
I1
sVball four
p205
I1
sVa horologist
p206
I1
sVin 007
p207
I1
sVagra india
p208
I1
sVbeen manufactured
p209
I1
sVstand for
p210
I1
sVoat muffins
p211
I1
sVmicrosoft established
p212
I1
sVmenstruation begin
p213
I1
sVname kilvington
p214
I1
sVyalta conference
p215
I1
sVeye take
p216
I1
sVmaldive islands
p217
I1
sVto ethel
p218
I1
sVblack cumin
p219
I1
sVthe chiffons
p220
I1
sVin iceland
p221
I1
sVin 1963
p222
I1
sVs boss
p223
I1
sVof titus
p224
I1
sVs presidents
p225
I1
sVblack audience
p226
I1
sVrotary engines
p227
I1
sVend down
p228
I1
sVamerican graffiti
p229
I1
sVwife dale
p230
I1
sVteam called
p231
I1
sVinvestigation cost
p232
I1
sVs stripes
p233
I1
sVin english
p234
I1
sVu s
p235
I2
sVunited states
p236
I1
sVto fight
p237
I1
sVin australia
p238
I1
sVempty into
p239
I1
sVtasman seas
p240
I1
sVs lawyer
p241
I1
sVwall erected
p242
I1
sVtemperature today
p243
I1
sVfor men
p244
I1
sVadvertise for
p245
I2
sVnebuchadnezzar build
p246
I1
sVfeatured shylock
p247
I1
sVcorvette go
p248
I1
sVhe died
p249
I1
sVhawkeye state
p250
I1
sVthey please
p251
I1
sVabdominal aneurysm
p252
I1
sVused here
p253
I1
sVbefore toothpaste
p254
I1
sVbreakfast cereal
p255
I1
sVof germany
p256
I1
sVten commandments
p257
I1
sVmale have
p258
I1
sVisn t
p259
I1
sVs assassination
p260
I1
sVfor cooking
p261
I1
sVgeorge curious
p262
I1
sVworld historically
p263
I1
sVof giza
p264
I1
sVso unique
p265
I1
sVhis credit
p266
I1
sVto superman
p267
I1
sVsubway line
p268
I1
sVlai massacre
p269
I1
sV11 bankruptcy
p270
I1
sVromantic englishwoman
p271
I1
sVengine automobile
p272
I1
sVis mozambique
p273
I1
sVraspberry strawberry
p274
I1
sVof drinks
p275
I1
sVpersian rugs
p276
I1
sVand clyde
p277
I1
sVcauses headaches
p278
I1
sVcourt justice
p279
I1
sVred cross
p280
I2
sVkasparov plays
p281
I1
sVhe waits
p282
I1
sVof pennsylvania
p283
I1
sVmackinaw bridge
p284
I1
sVeverest
p285
I1
sVour time
p286
I1
sVsubmarine operate
p287
I1
sVdaisy moses
p288
I1
sVeskimo people
p289
I1
sVolympics held
p290
I1
sVs voice
p291
I1
sVmay 1979
p292
I1
sVwashington born
p293
I1
sVwatergate hearings
p294
I1
sVstar thalia
p295
I1
sVinternational radio
p296
I1
sVcoast completed
p297
I1
sVgate bridge
p298
I1
sVboy scouts
p299
I1
sVin common
p300
I1
sVmoby dick
p301
I1
sVquilting begin
p302
I1
sVs soup
p303
I1
sVventura county
p304
I1
sVof america
p305
I1
sVblank verse
p306
I1
sVof australia
p307
I1
sVcoca cola
p308
I1
sVeaster island
p309
I1
sVcraft murder
p310
I1
sVis platinum
p311
I1
sVfriendly greeting
p312
I1
sVprobability theory
p313
I1
sVatlantic ocean
p314
I1
sVof acne
p315
I1
sVan aurora
p316
I1
sVlindbergh die
p317
I1
sVhis money
p318
I1
sVbecome commonplace
p319
I1
sVsouth bend
p320
I1
sVis gorbachev
p321
I1
sVof fish
p322
I1
sVthe morning
p323
I1
sVdoll collection
p324
I1
sVmakeup originate
p325
I1
sVperson pronoun
p326
I1
sVpicture production
p327
I1
sVin chile
p328
I1
stp329
Rp330
sg25
I5426
sg26
F2898.0
sbs(g8
S'language_count'
p331
tp332
g0
(g14
g2
Ntp333
Rp334
(dp335
g18
F0.5
sg19
I7788
sg20
g21
((dp336
I0
I2612
sI1
I2505
sI2
I1370
sI3
I673
sI4
I311
sI5
I171
sI6
I67
sI7
I41
sI8
I15
sI9
I9
sI10
I4
sI11
I5
sI12
I2
sI13
I1
sI14
I1
sI17
I1
stp337
Rp338
sg25
I16
sg26
F7796.0
sbs(g8
g34
tp339
g0
(g14
g2
Ntp340
Rp341
(dp342
g18
F0.5
sg19
I7788
sg20
g21
((dp343
Va record
p344
I1
sVeverybody can
p345
I1
sVthe second
p346
I5
sVthe most
p347
I1
sVi pictured
p348
I1
sValong the
p349
I1
sVcolleges must
p350
I1
sVthe ban
p351
I1
sVlike bill
p352
I1
sVyou see
p353
I1
sVwe got
p354
I1
sVthe last
p355
I4
sVso these
p356
I4
sVwe finish
p357
I2
sVnow ultimately
p358
I1
sVrick shewell
p359
I1
sVthe president
p360
I43
sVtwo alumni
p361
I1
sVit just
p362
I2
sVthanks very
p363
I1
sVand did
p364
I1
sVsure go
p365
I1
sVin terms
p366
I1
sVthe chinese
p367
I1
sVwe work
p368
I1
sVto address
p369
I1
sVaurora
p370
I1
sVit still
p371
I1
sVtoda raba
p372
I1
sVour prosperity
p373
I1
sVin states
p374
I1
sVstep number
p375
I2
sVwe recognize
p376
I3
sVthis has
p377
I1
sVseveral hundred
p378
I1
sVi suspect
p379
I1
sVthe resurgence
p380
I1
sVdo we
p381
I2
sVbecause of
p382
I15
sVthey said
p383
I1
sValmost every
p384
I1
sVyou get
p385
I1
sVgeneral motors
p386
I1
sVmr president
p387
I2
sVwell i
p388
I2
sVmy name
p389
I1
sVevery family
p390
I1
sVis it
p391
I3
sVbut progress
p392
I1
sVthis used
p393
I1
sVthey had
p394
I3
sVshe goes
p395
I1
sVwe continued
p396
I1
sValthough america
p397
I1
sVi know
p398
I39
sVwe produce
p399
I5
sVnevertheless this
p400
I1
sVand is
p401
I1
sVand it
p402
I62
sVin many
p403
I3
sVtaking the
p404
I1
sVshow your
p405
I1
sVthis moment
p406
I1
sVa british
p407
I1
sVand if
p408
I38
sVon that
p409
I1
sVand step
p410
I2
sVand in
p411
I19
sVso on
p412
I2
sVtoday here
p413
I1
sVwhenever i
p414
I1
sVwashington doled
p415
I1
sVhello buckeyes
p416
I1
sVstill we
p417
I1
sVthe lives
p418
I1
sVour deficits
p419
I4
sVhundreds of
p420
I2
sVall it
p421
I1
sVam i
p422
I1
sVamerica cannot
p423
I2
sVthough all
p424
I1
sVhigh ranking
p425
I1
sVnow it
p426
I3
sVthen when
p427
I2
sVthen in
p428
I1
sVnow is
p429
I9
sVsaved the
p430
I1
sVantonieta cadiz
p431
I1
sVyou should
p432
I3
sVnow if
p433
I8
sVso obviously
p434
I1
sVthrough development
p435
I1
sVnow in
p436
I1
sVyou guys
p437
I1
sVthe politics
p438
I1
sVaudience reperile
p439
I1
sVthey don
p440
I6
sVthe vote
p441
I2
sVwell good
p442
I1
sVnow let
p443
I4
sVnew housing
p444
I1
sVafter years
p445
I1
sVit gives
p446
I1
sVthings happen
p447
I1
sVearlier this
p448
I1
sVwe affirm
p449
I1
sVthey arrived
p450
I1
sVwhy the
p451
I2
sVand where
p452
I1
sVthey talked
p453
I1
sVwe went
p454
I2
sVyou think
p455
I1
sValready thousands
p456
I1
sVnow like
p457
I1
sVamerica does
p458
I1
sVthank you
p459
I76
sVwe want
p460
I14
sVthat means
p461
I13
sVi don
p462
I20
sVthey created
p463
I1
sVso today
p464
I11
sVwe pursued
p465
I1
sVthese people
p466
I1
sVthe afghan
p467
I1
sVi stagger
p468
I1
sVlaw enforcement
p469
I1
sVsenate finance
p470
I2
sVonce you
p471
I1
sVi hope
p472
I3
sVplease please
p473
I1
sVinstead he
p474
I1
sVand unfortunately
p475
I1
sVjanet also
p476
I1
sVi recently
p477
I1
sValready our
p478
I1
sVfirst if
p479
I1
sVour tears
p480
I1
sVothers talked
p481
I1
sVfirst in
p482
I1
sVtolerance won
p483
I1
sVcertainly that
p484
I1
sVben gurion
p485
I1
sVand tell
p486
I1
sVand success
p487
I1
sVthe cleveland
p488
I1
sVoffering training
p489
I1
sVfor businesses
p490
I1
sVkeeping our
p491
I3
sVchristi parsons
p492
I1
sVwe appreciate
p493
I2
sVbarclays center
p494
I1
sVgive him
p495
I3
sVtoday osama
p496
I1
sVyou can
p497
I10
sVnow both
p498
I1
sVeverybody loves
p499
I1
sVdirector mayorkas
p500
I1
sVfor this
p501
I1
sVq is
p502
I1
sVpent up
p503
I1
sVand increased
p504
I1
sVit took
p505
I1
sVthe wrenching
p506
I1
sVthe middle
p507
I1
sVq if
p508
I1
sVwhat will
p509
I1
sVmaureen dowd
p510
I1
sVand after
p511
I4
sVand later
p512
I2
sVduring my
p513
I1
sVthere she
p514
I3
sVour university
p515
I1
sVbut my
p516
I4
sVit would
p517
I13
sVpain which
p518
I1
sVthis works
p519
I1
sVwhen that
p520
I1
sVeverybody here
p521
I1
sVbut taxpayers
p522
I1
sVyesterday i
p523
I1
sVneighborhood by
p524
I1
sVis there
p525
I2
sVmost of
p526
I5
sVelrina nikita
p527
I1
sVi usually
p528
I1
sVhe fought
p529
I1
sVand american
p530
I1
sVas your
p531
I2
sVbut there
p532
I3
sVthat also
p533
I1
sVjobs were
p534
I1
sVthe businesses
p535
I1
sVindependent economists
p536
I1
sVbye bye
p537
I1
sVespecially in
p538
I1
sVthe default
p539
I1
sVa lot
p540
I4
sVa low
p541
I1
sVwatching his
p542
I1
sVa job
p543
I1
sVkids who
p544
I1
sVthings have
p545
I1
sVoh and
p546
I1
sVfrom their
p547
I1
sValongside the
p548
I2
sVfired up
p549
I3
sVeconomists show
p550
I1
sVand you
p551
I21
sVyou meet
p552
I1
sVa bill
p553
I1
sVfriends of
p554
I1
sVand he
p555
I8
sVcreating more
p556
I1
sVdifferent nations
p557
I1
sVjulianna
p558
I2
sVin world
p559
I1
sVon thursday
p560
I1
sVhave a
p561
I1
sVrecently professor
p562
I1
sVthey have
p563
I3
sVthis company
p564
I1
sVit ll
p565
I1
sVif those
p566
I1
sVwe must
p567
I11
sVwhere are
p568
I3
sVit helps
p569
I1
sVi apologize
p570
I1
sVthe fact
p571
I4
sVwhen he
p572
I1
sVchanged a
p573
I1
sVby strengthening
p574
I1
sVso all
p575
I4
sVdroughts and
p576
I1
sVpregnancy will
p577
I1
sVor from
p578
I1
sVso carol
p579
I1
sVbut this
p580
I13
sVreal reform
p581
I1
sVpeople can
p582
I2
sVthat hurts
p583
I1
sVno more
p584
I1
sVso there
p585
I8
sVi thought
p586
I3
sVstrong institutions
p587
I1
sVderanged or
p588
I1
sVfor make
p589
I1
sVthis year
p590
I2
sVmichelle is
p591
I1
sVby friday
p592
I1
sVcongratulations to
p593
I1
sVeveryone who
p594
I1
sVeven a
p595
I1
sVhe and
p596
I1
sVit brings
p597
I1
sVthat starts
p598
I1
sVbut despite
p599
I2
sVbut let
p600
I7
sVdifferent peoples
p601
I1
sVtwo great
p602
I1
sVyour voices
p603
I1
sVnow all
p604
I2
sVa place
p605
I1
sVthe incomes
p606
I1
sVall those
p607
I1
sVthose old
p608
I1
sVi saw
p609
I1
sVi say
p610
I1
sVthese officials
p611
I1
sVthat when
p612
I1
sVlittle children
p613
I1
sVmandela once
p614
I1
sVstepping forward
p615
I1
sVour troops
p616
I3
sVwe know
p617
I25
sVin iraq
p618
I3
sVas cadets
p619
I1
sVyou know
p620
I5
sVthose boards
p621
I1
sVbillions of
p622
I1
sVwherever possible
p623
I1
sVi understand
p624
I6
sVwe created
p625
I1
sVthe police
p626
I1
sVhire a
p627
I1
sVfor one
p628
I1
sVwhile you
p629
I1
sVit takes
p630
I4
sVthose two
p631
I1
sVit ought
p632
I1
sVsome debates
p633
I1
sVhe didn
p634
I1
sVinstead the
p635
I1
sVas her
p636
I1
sVhis church
p637
I1
sVtheir daughter
p638
I1
sVyou end
p639
I1
sVduring the
p640
I1
sVlet them
p641
I1
sVno deeds
p642
I1
sVlook right
p643
I1
sVnumber two
p644
I5
sVamerica alone
p645
I1
sVso maybe
p646
I1
sVi ll
p647
I6
sVi must
p648
I1
sVindeed as
p649
I1
sVthe system
p650
I1
sVjust look
p651
I1
sVfranklin roosevelt
p652
I1
sVand some
p653
I2
sVwhen the
p654
I1
sVsome may
p655
I2
sVyour republican
p656
I1
sVwhen someone
p657
I1
sVso what
p658
I6
sVbut eventually
p659
I1
sVwhere force
p660
I1
sVthe concept
p661
I1
sVon monday
p662
I2
sVwhen dictators
p663
I1
sVfor me
p664
I3
sVsenior year
p665
I1
sVa country
p666
I1
sVfirefighters from
p667
I1
sVevery one
p668
I2
sVfrankly i
p669
I2
sVmore chances
p670
I1
sVthe overwhelmingly
p671
I1
sVwe are
p672
I24
sVwe knew
p673
I2
sVsome people
p674
I1
sVthe sequester
p675
I3
sVto make
p676
I1
sVand something
p677
I1
sVeverybody please
p678
I3
sVthey demand
p679
I1
sVif you
p680
I31
sVtimes times
p681
I1
sVjust yesterday
p682
I1
sVmaybe you
p683
I9
sVand all
p684
I12
sVbut these
p685
I6
sVthe future
p686
I2
sVif confirmed
p687
I1
sVbut thanks
p688
I1
sVand governor
p689
I1
sVhouse starts
p690
I1
sVtoday the
p691
I4
sVit didn
p692
I1
sVsome can
p693
I1
sVwhat the
p694
I1
sVyou want
p695
I2
sVothers have
p696
I3
sVwe strive
p697
I1
sVabout three
p698
I1
sVall we
p699
I1
sVi dare
p700
I2
sVas some
p701
I1
sVthese events
p702
I1
sVcan you
p703
I2
sVso starting
p704
I2
sVthere doesn
p705
I1
sVit s
p706
I152
sVbut i
p707
I53
sVwhere al
p708
I1
sVthe problem
p709
I5
sVyes there
p710
I2
sVone time
p711
I1
sVat least
p712
I1
sVyou and
p713
I2
sVwe saved
p714
I1
sVby investing
p715
I1
sVthe position
p716
I1
sVthe italians
p717
I1
sVi very
p718
I1
sVbut over
p719
I2
sVthe question
p720
I3
sVthe cynics
p721
I1
sVso can
p722
I1
sVsometimes we
p723
I1
sVshe welcomed
p724
I1
sVohio that
p725
I1
sVchances are
p726
I1
sVwhen it
p727
I2
sVwhy would
p728
I3
sVsecond on
p729
I1
sVit doesn
p730
I9
sVlast year
p731
I6
sVand earlier
p732
I1
sVsecond of
p733
I1
sVthose who
p734
I3
sVso david
p735
I2
sVnot even
p736
I1
sVan american
p737
I1
sVafter i
p738
I1
sVafter a
p739
I1
sVnow think
p740
I1
sVlet us
p741
I5
sVthey ve
p742
I14
sVit comes
p743
I1
sVyour jobs
p744
I1
sVcommanders in
p745
I1
sVwe recall
p746
I1
sVbut here
p747
I4
sVthe type
p748
I1
sVnothing has
p749
I1
sVwe race
p750
I1
sVlikewise the
p751
I2
sVobviously there
p752
I2
sVmohamed morsi
p753
I1
sVjustice on
p754
I1
sVthere won
p755
I2
sVthe chance
p756
I1
sVin 2012
p757
I1
sVeach of
p758
I1
sVfirefighters are
p759
I1
sVaudience member
p760
I13
sVbut during
p761
I1
sVthe hard
p762
I1
sVwe saw
p763
I2
sVthis includes
p764
I1
sVso together
p765
I3
sVthis state
p766
I1
sVbut ultimately
p767
I1
sVsome caused
p768
I1
sVboston may
p769
I1
sVand they
p770
I20
sVour afghan
p771
I1
sVand then
p772
I23
sVour system
p773
I1
sVour prayers
p774
I3
sVno no
p775
I1
sVothers may
p776
I2
sVneither assad
p777
I1
sVthey all
p778
I1
sVradcliffe was
p779
I1
sVunderstand this
p780
I1
sVthrough setbacks
p781
I1
sVmy understanding
p782
I1
sVgive kathy
p783
I1
sVyou might
p784
I3
sVsend me
p785
I1
sVleading the
p786
I1
sVnow here
p787
I2
sVthese extremists
p788
I1
sVreal breakthroughs
p789
I1
sVin mali
p790
I2
sVthe main
p791
I1
sVamerican energy
p792
I1
sVremember that
p793
I2
sVthey do
p794
I2
sVand of
p795
I5
sVfor years
p796
I1
sVall the
p797
I1
sVif he
p798
I1
sVand within
p799
I1
sVteachers work
p800
I1
sVget comfortable
p801
I1
sVthe greatest
p802
I1
sVwe still
p803
I1
sVso thanks
p804
I3
sVbecause rather
p805
I1
sVwhy are
p806
I2
sVhope is
p807
I1
sVnobody cares
p808
I1
sVaudience happy
p809
I1
sVhe wasn
p810
I1
sVthat successful
p811
I1
sVwe live
p812
I1
sVshe loved
p813
I1
sVyoung people
p814
I1
sVeverybody have
p815
I2
sVso at
p816
I3
sVnow this
p817
I3
sVany u
p818
I1
sVwe extended
p819
I3
sVi visited
p820
I1
sVwe started
p821
I2
sVloving supportive
p822
I1
sVthe individual
p823
I2
sVhome sales
p824
I1
sVbecause even
p825
I2
sVconstruction workers
p826
I1
sVand for
p827
I19
sVthe bottom
p828
I2
sVa couple
p829
I4
sVcan t
p830
I1
sVyour resolve
p831
I1
sVso reversing
p832
I1
sVto educate
p833
I1
sVsenators of
p834
I1
sVthat foundation
p835
I1
sVthe third
p836
I1
sVso adding
p837
I1
sVthat s
p838
I270
sVask any
p839
I1
sVthe task
p840
I1
sVcommerce has
p841
I1
sVa celebration
p842
I1
sVlook i
p843
I1
sVvery proud
p844
I1
sVdumelang
p845
I1
sVscripture tells
p846
I1
sVand unlike
p847
I1
sVour alliances
p848
I1
sVbut perfection
p849
I1
sVamerican made
p850
I1
sVcongressman from
p851
I1
sVeven if
p852
I3
sVso alycia
p853
I1
sVthink of
p854
I1
sVinstead this
p855
I1
sVcarol metcalf
p856
I1
sVfirst of
p857
I8
sVbut even
p858
I3
sVyou become
p859
I1
sVthings that
p860
I1
sVthe fuel
p861
I1
sVone last
p862
I1
sVbut what
p863
I12
sVbecause nothing
p864
I1
sVaudience ready
p865
I2
sVon september
p866
I1
sVend the
p867
I1
sVwe now
p868
I1
sVyour mayor
p869
I2
sVsky high
p870
I1
sVwe always
p871
I2
sVthe families
p872
I2
sVthis more
p873
I1
sVi on
p874
I1
sVsee i
p875
I1
sVour wounded
p876
I1
sVevery child
p877
I2
sVso three
p878
I1
sVand law
p879
I1
sVso here
p880
I7
sVand towards
p881
I1
sVa plant
p882
I1
sVisraelis are
p883
I1
sVor worse
p884
I1
sVbut like
p885
I2
sVher mom
p886
I1
sVbut america
p887
I2
sVfinally there
p888
I1
sVwhat generations
p889
I1
sVgo out
p890
I1
sVso he
p891
I3
sVi had
p892
I5
sVyesterday the
p893
I1
sVq they
p894
I1
sVvice president
p895
I1
sVon medicare
p896
I2
sVwould the
p897
I1
sVand essentially
p898
I1
sVfor banks
p899
I2
sVso america
p900
I3
sVmoving forward
p901
I1
sVwhatever mistakes
p902
I1
sVthe university
p903
I1
sVanyway so
p904
I1
sVthe quiet
p905
I1
sVother questions
p906
I1
sVtomorrow i
p907
I3
sVwe don
p908
I9
sVlook at
p909
I6
sVhardworking folks
p910
I1
sVthe notion
p911
I5
sVeven those
p912
I1
sVacross the
p913
I2
sVif parents
p914
I1
sVothers foaming
p915
I1
sVin an
p916
I1
sVwe honor
p917
I2
sVshould they
p918
I1
sVinstead our
p919
I1
sVi travel
p920
I1
sVwe trust
p921
I1
sVi am
p922
I16
sVall across
p923
I2
sVwithin a
p924
I2
sVour obligations
p925
I1
sVas a
p926
I14
sVnow partly
p927
I1
sVmichelle was
p928
I1
sVyes the
p929
I2
sVand over
p930
I8
sVi guess
p931
I1
sVas kids
p932
I1
sVit has
p933
I6
sVand once
p934
I3
sVher mind
p935
I1
sVand no
p936
I4
sVa century
p937
I1
sVthese last
p938
I1
sVgive them
p939
I1
sVbut so
p940
I3
sVand hour
p941
I1
sVthe memories
p942
I1
sVand two
p943
I1
sVthe shutdown
p944
I1
sVroll the
p945
I1
sVthird we
p946
I3
sVbut now
p947
I3
sVin 2009
p948
I1
sVthe polish
p949
I1
sVq i
p950
I1
sVbeyond 2014
p951
I1
sVthe struggle
p952
I1
sVone of
p953
I8
sVhe lost
p954
I2
sVdo they
p955
I1
sVfor nearly
p956
I1
sVto armies
p957
I1
sVshe recently
p958
I1
sVfifteen seconds
p959
I1
sVplaces that
p960
I2
sVthis afternoon
p961
I1
sVtonight i
p962
I2
sVand your
p963
I5
sVdo i
p964
I2
sVand schools
p965
I1
sVour regard
p966
I1
sVand since
p967
I3
sVcongratulations
p968
I1
sVbut as
p969
I10
sVbut at
p970
I1
sVtucson
p971
I1
sVand sometimes
p972
I3
sVconsider that
p973
I3
sVlove coming
p974
I1
sVwhat you
p975
I3
sVshe doesn
p976
I1
sVthis shutdown
p977
I1
sVpolitically given
p978
I1
sVin each
p979
I1
sVand across
p980
I1
sVthe only
p981
I4
sVto ensure
p982
I1
sVsomebody brought
p983
I1
sVbut whatever
p984
I1
sVthe idea
p985
I2
sVit taps
p986
I1
sVwhen others
p987
I2
sVthose parents
p988
I1
sVpresident karzai
p989
I1
sVno
p990
I1
sVthey endured
p991
I1
sVthe financial
p992
I1
sVas ariel
p993
I1
sVwives have
p994
I1
sVgiven the
p995
I2
sVout of
p996
I1
sVp tech
p997
I1
sVrepealing obamacare
p998
I2
sVindeed some
p999
I1
sVtreat one
p1000
I1
sVthose graduates
p1001
I1
sVthat innovation
p1002
I1
sVtens of
p1003
I2
sVas commander
p1004
I1
sVbut don
p1005
I1
sVsome students
p1006
I1
sVshe made
p1007
I1
sVthe good
p1008
I3
sVnow back
p1009
I1
sVthey train
p1010
I1
sVclass of
p1011
I1
sVto captain
p1012
I1
sVbecause while
p1013
I1
sVthe iranian
p1014
I1
sVtime passes
p1015
I1
sVwe need
p1016
I23
sVyour hopes
p1017
I1
sVgerald read
p1018
I1
sVwhat rationale
p1019
I1
sVhere for
p1020
I1
sVactually michelle
p1021
I1
sVso janet
p1022
I2
sVour military
p1023
I2
sVit risks
p1024
I1
sVand one
p1025
I7
sVand i
p1026
I177
sVclearly we
p1027
I1
sVstronger families
p1028
I1
sVto put
p1029
I2
sVand a
p1030
I5
sVour exports
p1031
I1
sVwell part
p1032
I1
sVyou ve
p1033
I25
sVnone of
p1034
I3
sVthe health
p1035
I1
sVhe seems
p1036
I1
sVmillions of
p1037
I3
sVso if
p1038
I12
sVthe prices
p1039
I2
sVat the
p1040
I6
sVthe capacity
p1041
I1
sVand this
p1042
I33
sVthis brings
p1043
I1
sVso it
p1044
I13
sVscripture teaches
p1045
I1
sVput yourself
p1046
I1
sVand these
p1047
I8
sVcaterpillar is
p1048
I2
sVchange will
p1049
I2
sVour national
p1050
I1
sVhis wife
p1051
I1
sVso across
p1052
I1
sVwhen president
p1053
I1
sVincomes are
p1054
I1
sVwe waged
p1055
I1
sVthey kind
p1056
I1
sVa somali
p1057
I1
sVnumber three
p1058
I6
sVsick kids
p1059
I1
sVso yesterday
p1060
I1
sVracial politics
p1061
I1
sVso right
p1062
I3
sVaudience the
p1063
I1
sVwe said
p1064
I3
sVplease be
p1065
I2
sVanother 8
p1066
I1
sVaudience i
p1067
I2
sVsemper fidelis
p1068
I1
sVonly you
p1069
I1
sVyou shouldn
p1070
I2
sVit describes
p1071
I1
sVmillions have
p1072
I1
sVthey assembled
p1073
I1
sVseeing his
p1074
I1
sVbut chester
p1075
I1
sVand last
p1076
I2
sVbut making
p1077
I1
sVninety percent
p1078
I2
sVfor nikita
p1079
I1
sVnow jeff
p1080
I1
sVimagine how
p1081
I1
sVafter 18
p1082
I1
sValycia is
p1083
I1
sVboston he
p1084
I1
sVwhat we
p1085
I7
sVthank all
p1086
I1
sVevery event
p1087
I1
sVto african
p1088
I1
sVdid i
p1089
I1
sVthere was
p1090
I3
sVour proposals
p1091
I1
sVwhen we
p1092
I12
sVwhy is
p1093
I1
sVamerica must
p1094
I1
sVthe weather
p1095
I1
sVtwo months
p1096
I1
sVless remembered
p1097
I1
sVthey also
p1098
I1
sVyou won
p1099
I1
sVcertainly the
p1100
I1
sVyou launched
p1101
I1
sVthe ideals
p1102
I1
sVafter escaping
p1103
I1
sVthey suggested
p1104
I1
sVthe purpose
p1105
I1
sVfirst i
p1106
I1
sVthe mayo
p1107
I1
sVyour goal
p1108
I1
sVis that
p1109
I1
sVhello camp
p1110
I1
sVnow i
p1111
I21
sVnow a
p1112
I2
sVsome gave
p1113
I1
sVthe african
p1114
I1
sVand here
p1115
I5
sVeverybody
p1116
I1
sVthe other
p1117
I2
sVthis should
p1118
I1
sVhave you
p1119
I1
sVit requires
p1120
I4
sVi expect
p1121
I3
sVj k
p1122
I1
sVfrom yemen
p1123
I1
sVjohn was
p1124
I1
sVsupport for
p1125
I1
sVbut that
p1126
I12
sVi haven
p1127
I1
sVin america
p1128
I1
sVand regular
p1129
I1
sVother american
p1130
I1
sVthrough meaningful
p1131
I1
sVdetermination is
p1132
I1
sVso think
p1133
I1
sVthat harmed
p1134
I1
sVand thanks
p1135
I4
sVher daughter
p1136
I1
sVhe was
p1137
I10
sVaffordable health
p1138
I3
sVin part
p1139
I2
sVpeople don
p1140
I1
sVyou welcomed
p1141
I1
sVwe cut
p1142
I1
sVpundits on
p1143
I1
sVafter our
p1144
I1
sVships wouldn
p1145
I1
sVq okay
p1146
I1
sVwonderful haircuts
p1147
I1
sVyou defend
p1148
I1
sVnikita came
p1149
I1
sVcities like
p1150
I1
sVtoo many
p1151
I3
sVconnecticut thank
p1152
I1
sVthe once
p1153
I1
sVa good
p1154
I2
sVfor black
p1155
I1
sVsteve kaufman
p1156
I1
sVanother republican
p1157
I1
sVi didn
p1158
I4
sVand just
p1159
I9
sVto the
p1160
I4
sVand my
p1161
I7
sVbut before
p1162
I1
sVlook if
p1163
I1
sVwe pull
p1164
I1
sVwe gather
p1165
I1
sVamerican ingenuity
p1166
I2
sVthis growing
p1167
I1
sVanother third
p1168
I1
sVthe best
p1169
I1
sVthese folks
p1170
I1
sVmichelle says
p1171
I1
sVand health
p1172
I1
sVwell that
p1173
I3
sVbecause in
p1174
I3
sVno repressive
p1175
I1
sVthe economy
p1176
I1
sVnow lately
p1177
I1
sVwhen was
p1178
I1
sVwhat does
p1179
I1
sVthe whole
p1180
I1
sVafghans will
p1181
I1
sVyou saw
p1182
I1
sVnow what
p1183
I4
sVbecause it
p1184
I1
sVthe connecticut
p1185
I1
sVdiego came
p1186
I1
sVand together
p1187
I1
sVi feel
p1188
I1
sVamericans across
p1189
I1
sVagain i
p1190
I1
sVgive teresa
p1191
I1
sVyour leaders
p1192
I1
sVdid you
p1193
I2
sVand god
p1194
I4
sVcongress should
p1195
I1
sVnot only
p1196
I1
sVso a
p1197
I4
sVa non
p1198
I1
sVand because
p1199
I10
sVwhether by
p1200
I1
sVso i
p1201
I40
sVone can
p1202
I1
sVthere he
p1203
I4
sVwe understand
p1204
I3
sVthe world
p1205
I7
sVrun with
p1206
I1
sVgroups like
p1207
I1
sVmore farmers
p1208
I1
sVsome outstanding
p1209
I1
sVand there
p1210
I12
sVpresident abbas
p1211
I1
sVin previous
p1212
I1
sVbeginning this
p1213
I1
sVso this
p1214
I20
sVwhat king
p1215
I1
sVwe were
p1216
I9
sVi got
p1217
I4
sVhalf
p1218
I1
sVthe risks
p1219
I1
sVi knew
p1220
I1
sVbecause one
p1221
I1
sVthe unemployment
p1222
I1
sVnor do
p1223
I1
sVsurely america
p1224
I1
sVand so
p1225
I43
sVwisdom comes
p1226
I1
sVdeveloping countries
p1227
I1
sVas officers
p1228
I1
sVit turns
p1229
I1
sVwe take
p1230
I1
sVthey want
p1231
I2
sVthose in
p1232
I1
sVas early
p1233
I1
sVforty percent
p1234
I1
sVthese partnerships
p1235
I1
sVbut right
p1236
I2
sVwith deficits
p1237
I1
sVafrica contains
p1238
I1
sVat midnight
p1239
I1
sVsunday is
p1240
I1
sVthe one
p1241
I2
sVfor too
p1242
I1
sVspecifically what
p1243
I1
sVwell last
p1244
I1
sValways faithful
p1245
I2
sVfour years
p1246
I1
sVnevertheless a
p1247
I1
sVyou ll
p1248
I5
sVwithout the
p1249
I1
sVthat science
p1250
I1
sVand finally
p1251
I11
sVthe leaders
p1252
I1
sVq mr
p1253
I3
sVbut none
p1254
I1
sVthey came
p1255
I1
sVthose ties
p1256
I1
sVwhy should
p1257
I1
sVthat is
p1258
I24
sVand invasions
p1259
I1
sVwe thank
p1260
I4
sVmyrna labarre
p1261
I2
sVon the
p1262
I9
sVnow over
p1263
I2
sVcongress and
p1264
I1
sVwell how
p1265
I1
sVchina germany
p1266
I1
sVwhen doctors
p1267
I1
sVin other
p1268
I2
sVso congratulations
p1269
I2
sVto begin
p1270
I2
sVmichael jordan
p1271
I1
sVthat includes
p1272
I5
sVand president
p1273
I1
sVgot some
p1274
I1
sVget in
p1275
I1
sVplay a
p1276
I1
sVbut participation
p1277
I1
sVsince we
p1278
I1
sVso last
p1279
I2
sVmeanwhile i
p1280
I1
sVbut think
p1281
I1
sVwe could
p1282
I1
sVwe did
p1283
I1
sVan economic
p1284
I1
sVbut generally
p1285
I1
sVhow are
p1286
I1
sVhe graduated
p1287
I1
sVyou maintained
p1288
I1
sVthe recovery
p1289
I1
sVhis mother
p1290
I1
sVlook to
p1291
I1
sVhere in
p1292
I5
sVcredit was
p1293
I1
sVsee how
p1294
I1
sVhowever as
p1295
I1
sVbut with
p1296
I2
sVhow many
p1297
I1
sVmillions more
p1298
I1
sVnow changing
p1299
I1
sVfurthermore the
p1300
I1
sVa home
p1301
I2
sVwell the
p1302
I2
sVlook he
p1303
I1
sVto secure
p1304
I1
sVi already
p1305
I1
sVthree years
p1306
I1
sVno military
p1307
I1
sVour gross
p1308
I1
sVthe same
p1309
I6
sVthe neighbors
p1310
I1
sVwe passed
p1311
I1
sVi mean
p1312
I13
sVthis happens
p1313
I1
sVyesterday in
p1314
I1
sVevery american
p1315
I1
sVbecause all
p1316
I1
sVmoreover america
p1317
I1
sVnobody wants
p1318
I2
sVwhat are
p1319
I2
sVapartheid was
p1320
I1
sVthe people
p1321
I2
sVit hurts
p1322
I1
sVyesterday is
p1323
I1
sVa stronger
p1324
I1
sVdespite what
p1325
I1
sVas free
p1326
I1
sVbecause mike
p1327
I1
sVand man
p1328
I1
sVhow well
p1329
I1
sVtoo often
p1330
I2
sVand his
p1331
I1
sVwhile we
p1332
I1
sVentrenched interests
p1333
I1
sVfactory towns
p1334
I1
sVin fact
p1335
I16
sVyou built
p1336
I1
sVit makes
p1337
I3
sVtomorrow the
p1338
I1
sVthis leads
p1339
I1
sVand may
p1340
I2
sVand against
p1341
I2
sVnow those
p1342
I1
sVjames madison
p1343
I1
sVso thank
p1344
I5
sVwhat happened
p1345
I1
sVotherwise they
p1346
I1
sVin my
p1347
I3
sVso using
p1348
I1
sVit reminds
p1349
I1
sVthen they
p1350
I1
sVmost americans
p1351
I1
sVmore businesses
p1352
I1
sVjobs are
p1353
I1
sVwe should
p1354
I22
sVon syria
p1355
I1
sVsix years
p1356
I1
sVmuslim americans
p1357
I1
sVour actions
p1358
I1
sVin reality
p1359
I1
sVready to
p1360
I3
sVhadiya s
p1361
I1
sVthrough it
p1362
I2
sVyour principal
p1363
I1
sVjust last
p1364
I1
sVfirst peace
p1365
I1
sVwho in
p1366
I1
sVanother part
p1367
I1
sVin kenya
p1368
I1
sVmany more
p1369
I1
sVhow easy
p1370
I1
sVit solves
p1371
I1
sVthey gave
p1372
I1
sVwhen europe
p1373
I1
sVor they
p1374
I3
sVnearly a
p1375
I1
sVthe key
p1376
I1
sVwell it
p1377
I7
sVas vice
p1378
I1
sVhousing prices
p1379
I1
sVgrowing up
p1380
I1
sVdivisions of
p1381
I1
sVdemocrats and
p1382
I2
sVnow obviously
p1383
I3
sVwe rightly
p1384
I1
sVthis was
p1385
I3
sVif strong
p1386
I1
sVnow these
p1387
I2
sVso surely
p1388
I1
sVsanctions must
p1389
I1
sVwith doors
p1390
I1
sVthese critics
p1391
I1
sVinstead we
p1392
I3
sVa husband
p1393
I1
sVbut know
p1394
I1
sVstrong and
p1395
I1
sVlilly could
p1396
I1
sVso peace
p1397
I1
sVour systematic
p1398
I1
sVone senator
p1399
I1
sVthen just
p1400
I1
sVthese are
p1401
I20
sVwe handle
p1402
I1
sVrather than
p1403
I1
sVdick durbin
p1404
I1
sVas you
p1405
I4
sVfor three
p1406
I1
sVif house
p1407
I1
sVso we
p1408
I39
sVthis country
p1409
I1
sVso put
p1410
I1
sVshe came
p1411
I1
sVdignity in
p1412
I1
sVin soweto
p1413
I1
sVyou look
p1414
I2
sVthen over
p1415
I1
sVso you
p1416
I15
sVindeed i
p1417
I1
sVso neither
p1418
I1
sVso when
p1419
I1
sVbecause there
p1420
I1
sVto confront
p1421
I1
sVi noticed
p1422
I2
sVso whenever
p1423
I1
sVto governments
p1424
I1
sVfor if
p1425
I2
sVand according
p1426
I1
sVq but
p1427
I2
sVshe says
p1428
I1
sVin defense
p1429
I1
sVvielen dank
p1430
I1
sVit should
p1431
I2
sVdouble it
p1432
I1
sVjust like
p1433
I1
sVthere is
p1434
I7
sVbeyond bringing
p1435
I1
sVspeak up
p1436
I1
sVfor most
p1437
I1
sVthis spring
p1438
I1
sVultimately this
p1439
I1
sVyou had
p1440
I7
sVmanufacturing is
p1441
I1
sVthe interim
p1442
I1
sVgroucho marx
p1443
I2
sVit passed
p1444
I1
sVit was
p1445
I22
sVfor example
p1446
I11
sVmoreover wars
p1447
I1
sVsome will
p1448
I4
sVthey shouldn
p1449
I1
sVwhat that
p1450
I1
sVyour voice
p1451
I3
sVbut instead
p1452
I1
sVjust doing
p1453
I1
sVhaving concluded
p1454
I1
sVhowever over
p1455
I1
sVback in
p1456
I1
sVour combat
p1457
I1
sVmatters of
p1458
I1
sVso shaun
p1459
I1
sVnobody is
p1460
I1
sVwhen elrina
p1461
I1
sVthere has
p1462
I1
sVi get
p1463
I1
sValthough ohio
p1464
I1
sVhe made
p1465
I1
sVgay and
p1466
I1
sVbut sovereignty
p1467
I1
sVagain the
p1468
I1
sVamerica s
p1469
I4
sVso everybody
p1470
I2
sVbe the
p1471
I2
sVthe scandinavians
p1472
I1
sVcore al
p1473
I1
sVbut either
p1474
I1
sVyou are
p1475
I3
sVmore of
p1476
I1
sVthe sunlight
p1477
I1
sVamerica i
p1478
I1
sVevery business
p1479
I1
sVnow the
p1480
I13
sVjust two
p1481
I1
sVthey crossed
p1482
I1
sVbecause from
p1483
I1
sVas of
p1484
I1
sVbut dr
p1485
I1
sVbut by
p1486
I2
sVthe survivors
p1487
I1
sVthey struck
p1488
I1
sVmay god
p1489
I8
sVto do
p1490
I1
sVwe bear
p1491
I1
sVto my
p1492
I1
sVto me
p1493
I1
sVso over
p1494
I3
sVmichelle would
p1495
I2
sVotherwise we
p1496
I1
sVhow do
p1497
I5
sVmarie lopez
p1498
I1
sVthe number
p1499
I1
sVat times
p1500
I1
sVbut does
p1501
I1
sVin 1963
p1502
I1
sVaudience good
p1503
I1
sVand thank
p1504
I1
sVthis may
p1505
I1
sVi love
p1506
I4
sVand maybe
p1507
I1
sVnevertheless it
p1508
I1
sVtake the
p1509
I1
sVto terrorist
p1510
I1
sVgod bless
p1511
I35
sVndaa
p1512
I1
sVhe used
p1513
I1
sVdirector of
p1514
I1
sVit made
p1515
I1
sVthrough tax
p1516
I1
sVto meet
p1517
I1
sVit involves
p1518
I4
sVmen who
p1519
I2
sVin afghanistan
p1520
I2
sVin addition
p1521
I1
sVbut taken
p1522
I1
sVwhat s
p1523
I4
sVyou got
p1524
I1
sVit starts
p1525
I1
sVour economy
p1526
I4
sVthe actions
p1527
I1
sVwashington should
p1528
I1
sVdr yellen
p1529
I1
sVnew businesses
p1530
I1
sVbut every
p1531
I1
sVno law
p1532
I1
sVwhat i
p1533
I4
sVconvince those
p1534
I1
sVand malia
p1535
I1
sVthey deserve
p1536
I5
sVbut one
p1537
I1
sVof the
p1538
I1
sVask folks
p1539
I1
sVneither occupation
p1540
I1
sVhe takes
p1541
I1
sValready because
p1542
I1
sVsectarian conflict
p1543
I1
sVand economists
p1544
I1
sVthey left
p1545
I1
sVnow there
p1546
I6
sVwelcome back
p1547
I1
sVwe doubled
p1548
I3
sVthe independent
p1549
I1
sVto him
p1550
I1
sVi can
p1551
I5
sVto hit
p1552
I1
sVwhoever was
p1553
I1
sVwhen their
p1554
I1
sVin return
p1555
I1
sVin the
p1556
I31
sVpolicies that
p1557
I1
sVpresident wilson
p1558
I1
sVeven the
p1559
I1
sVbenjamin mays
p1560
I1
sVcouldn t
p1561
I1
sVwe owe
p1562
I3
sVfor young
p1563
I1
sVall of
p1564
I7
sVlincoln was
p1565
I1
sVfree checkups
p1566
I1
sVto summarize
p1567
I1
sVto rebuild
p1568
I1
sVbeyond the
p1569
I1
sVsheldon would
p1570
I1
sVfrom benghazi
p1571
I1
sVbut never
p1572
I1
sVso nobody
p1573
I1
sVagreements among
p1574
I1
sVeverybody knows
p1575
I1
sVi respect
p1576
I1
sValready millions
p1577
I1
sVso about
p1578
I1
sVand young
p1579
I1
sVbut through
p1580
I1
sVi care
p1581
I1
sVas any
p1582
I1
sVfor he
p1583
I1
sVgeorgia tech
p1584
I1
sVbut because
p1585
I4
sVthat should
p1586
I2
sVyou don
p1587
I5
sVthis reform
p1588
I1
sVat manor
p1589
I1
sVi did
p1590
I2
sVsecond we
p1591
I3
sVbecause the
p1592
I2
sVwhen peaceful
p1593
I1
sVour dangerous
p1594
I1
sVmay he
p1595
I2
sVso many
p1596
I2
sVmeanwhile competition
p1597
I1
sVyour grandparents
p1598
I1
sVthere aren
p1599
I1
sVit means
p1600
I12
sVlet me
p1601
I15
sVon this
p1602
I1
sVprivately we
p1603
I1
sVhello hyde
p1604
I1
sVand that
p1605
I159
sVit depends
p1606
I1
sVunlike vietnam
p1607
I2
sVthose supertankers
p1608
I1
sVas always
p1609
I1
sVthe father
p1610
I1
sVbut for
p1611
I4
sVconsider background
p1612
I1
sVnow last
p1613
I2
sVrepublicans built
p1614
I1
sVeven though
p1615
I1
sVthose of
p1616
I3
sVinsurance companies
p1617
I2
sVand long
p1618
I1
sVwhile i
p1619
I1
sVthe truth
p1620
I1
sVwe re
p1621
I71
sVthey go
p1622
I1
sVbecause what
p1623
I1
sVearly education
p1624
I1
sVsemper fi
p1625
I1
sVyou ask
p1626
I1
sVwith the
p1627
I6
sVbill and
p1628
I1
sVimagine what
p1629
I1
sVundoubtedly there
p1630
I1
sVas long
p1631
I2
sVi added
p1632
I1
sVmoreover no
p1633
I1
sVwhen all
p1634
I1
sVjust by
p1635
I1
sVit needs
p1636
I1
sVto dismiss
p1637
I1
sVand each
p1638
I1
sVwe limit
p1639
I1
sVof course
p1640
I10
sVcall that
p1641
I1
sVto build
p1642
I1
sVhere citizens
p1643
I1
sVjust over
p1644
I1
sVnow on
p1645
I2
sVour citizens
p1646
I1
sVthat bill
p1647
I1
sVso to
p1648
I6
sVlike you
p1649
I2
sVso folks
p1650
I1
sVand obviously
p1651
I2
sVmeat inspectors
p1652
I1
sVthe very
p1653
I1
sVmike is
p1654
I1
sVwe pray
p1655
I1
sVwe build
p1656
I1
sVhealth care
p1657
I4
sVmore exercises
p1658
I1
sVit derives
p1659
I1
sVi have
p1660
I8
sVin our
p1661
I1
sVwell we
p1662
I4
sVhispanic americans
p1663
I1
sVand when
p1664
I16
sValready israeli
p1665
I1
sVit conserves
p1666
I1
sVbut she
p1667
I1
sVhealthy mothers
p1668
I1
sVfinally we
p1669
I1
sVit involved
p1670
I1
sVwhere they
p1671
I1
sVthe battle
p1672
I1
sVi would
p1673
I2
sVyou notice
p1674
I1
sVall he
p1675
I1
sVhe just
p1676
I1
sVfor you
p1677
I3
sVthat happens
p1678
I2
sVand before
p1679
I1
sVand make
p1680
I1
sVbefore we
p1681
I1
sVevery single
p1682
I2
sVhe does
p1683
I1
sVso one
p1684
I2
sVthe experience
p1685
I1
sVin some
p1686
I9
sVwe do
p1687
I3
sVamerica is
p1688
I4
sVinvest
p1689
I1
sVwork together
p1690
I1
sVpoverty rates
p1691
I1
sVand let
p1692
I10
sVbecause you
p1693
I2
sVthis needs
p1694
I1
sVeach successive
p1695
I1
sVlast month
p1696
I2
sVbut while
p1697
I5
sVordinary people
p1698
I1
sVmaking sure
p1699
I2
sVas dr
p1700
I1
sVthat kind
p1701
I2
sVthey help
p1702
I1
sVin too
p1703
I3
sVa focus
p1704
I1
sVif doctors
p1705
I1
sVand countries
p1706
I1
sVthey quickly
p1707
I1
sVthey feel
p1708
I1
sVthen i
p1709
I1
sVif that
p1710
I1
sVand by
p1711
I24
sVmeanwhile the
p1712
I1
sVmy economic
p1713
I1
sVprogram
p1714
I1
sVinstead let
p1715
I1
sVmuch of
p1716
I1
sVthe 12
p1717
I1
sVnow look
p1718
I1
sVhour and
p1719
I1
sVnow part
p1720
I2
sVfor throughout
p1721
I1
sVcase in
p1722
I1
sValan is
p1723
I1
sVthe phone
p1724
I1
sVyour own
p1725
I1
sVour faith
p1726
I1
sVafter about
p1727
I1
sVthe founders
p1728
I1
sVand guess
p1729
I1
sVronald reagan
p1730
I1
sVgina has
p1731
I1
sVbut ask
p1732
I1
sVour thoughts
p1733
I1
sVwill you
p1734
I1
sVwhat is
p1735
I4
sVthe history
p1736
I1
sVour founding
p1737
I1
sVover the
p1738
I18
sVdoesn t
p1739
I2
sValso the
p1740
I1
sVtoday 60
p1741
I1
sVjanet is
p1742
I2
sVterrible things
p1743
I1
sVi won
p1744
I2
sVyou remember
p1745
I2
sVto say
p1746
I2
sVrecovery was
p1747
I1
sVwhy wouldn
p1748
I5
sVamerica has
p1749
I2
sVzero
p1750
I1
sVmake us
p1751
I1
sVwealth was
p1752
I1
sVpush to
p1753
I1
sVoverwhelming majorities
p1754
I1
sVunfortunately over
p1755
I3
sVsadly this
p1756
I1
sVrepublicans fell
p1757
I1
sVwell america
p1758
I1
sVbut remember
p1759
I1
sVright now
p1760
I16
sVgreenville
p1761
I1
sVshe s
p1762
I6
sVbut a
p1763
I7
sVand rebuilding
p1764
I2
sVdidn t
p1765
I3
sVfor decades
p1766
I2
sVtime and
p1767
I1
sVi opposed
p1768
I1
sVnot the
p1769
I1
sVthey face
p1770
I1
sVyou cited
p1771
I1
sVthis week
p1772
I3
sVthey stood
p1773
I1
sVms baker
p1774
I2
sVi said
p1775
I2
sVlast weekend
p1776
I1
sVand with
p1777
I3
sVwar in
p1778
I1
sVhe deployed
p1779
I2
sVwe the
p1780
I3
sVmy son
p1781
I1
sVnow unfortunately
p1782
I1
sVobviously the
p1783
I1
sVbecause that
p1784
I3
sVbut tolu
p1785
I1
sVhe practiced
p1786
I1
sVmax baucus
p1787
I1
sVwhether it
p1788
I1
sVthe russians
p1789
I1
sValready we
p1790
I2
sVthe soldier
p1791
I1
sVi continue
p1792
I2
sVit captures
p1793
I1
sVjeff said
p1794
I1
sVfull stop
p1795
I1
sVconnecticut this
p1796
I1
sVthat won
p1797
I1
sVthey take
p1798
I1
sVq no
p1799
I1
sVwho knew
p1800
I1
sVpolitical leadership
p1801
I1
sVfor much
p1802
I1
sVone urgent
p1803
I1
sVbecause no
p1804
I1
sVand hopefully
p1805
I1
sVyou may
p1806
I4
sVand welcome
p1807
I1
sVyour test
p1808
I1
sVo h
p1809
I1
sVmoreover foreign
p1810
I1
sVshow of
p1811
I1
sVthose new
p1812
I1
sVon christmas
p1813
I1
sVgoing forward
p1814
I4
sVthere s
p1815
I33
sVi believe
p1816
I19
sVto transform
p1817
I1
sVthe burdens
p1818
I1
sVthey weren
p1819
I1
sVgolly
p1820
I1
sVi just
p1821
I5
sVstylish eyeglasses
p1822
I1
sVyou will
p1823
I3
sVcompanies like
p1824
I1
sVif it
p1825
I2
sVthe first
p1826
I4
sVthey can
p1827
I3
sVshe was
p1828
I4
sVbecause i
p1829
I1
sVwillingly they
p1830
I1
sVcompanies will
p1831
I1
sVremember most
p1832
I1
sVnext to
p1833
I1
sVif the
p1834
I3
sVbut you
p1835
I10
sVthird i
p1836
I1
sVof teachers
p1837
I1
sVin that
p1838
I5
sVthird a
p1839
I1
sVbut jonathon
p1840
I1
sVtell them
p1841
I2
sVso doing
p1842
I1
sVthe challenge
p1843
I1
sVconfederate advances
p1844
I1
sVa second
p1845
I1
sVunless you
p1846
I1
sVplease have
p1847
I3
sVaudience congressman
p1848
I1
sVand going
p1849
I3
sVon august
p1850
I1
sVour new
p1851
I2
sVin doing
p1852
I1
sVthe images
p1853
I1
sVin yemen
p1854
I1
sVi do
p1855
I8
sVmy father
p1856
I1
sVintel was
p1857
I1
sVjustice has
p1858
I1
sVokay
p1859
I3
sVhe went
p1860
I1
sVelrina was
p1861
I1
sVgraduates give
p1862
I1
sVi wouldn
p1863
I1
sVthreatening that
p1864
I1
sVeverywhere i
p1865
I2
sVand right
p1866
I2
sVwe relentlessly
p1867
I1
sVduring our
p1868
I1
sVand look
p1869
I3
sVq back
p1870
I1
sVover successive
p1871
I1
sVlittle lady
p1872
I1
sVbread and
p1873
I1
sVthis debate
p1874
I2
sVand from
p1875
I2
sVyour families
p1876
I1
sVit matters
p1877
I1
sVtogether we
p1878
I9
sVthe nobel
p1879
I1
sVit keeps
p1880
I6
sVnot until
p1881
I2
sVif a
p1882
I1
sVso eight
p1883
I1
sVif i
p1884
I2
sVand america
p1885
I3
sVbasically there
p1886
I1
sVi proposed
p1887
I2
sVthat makes
p1888
I2
sVnow finally
p1889
I1
sVmedgar evers
p1890
I1
sVand dan
p1891
I1
sVand like
p1892
I5
sVits economy
p1893
I1
sVhe has
p1894
I1
sVgood to
p1895
I2
sVbut then
p1896
I2
sVonce more
p1897
I2
sVequal pay
p1898
I1
sVthe taliban
p1899
I1
sVhe had
p1900
I2
sVwe had
p1901
I2
sVbut all
p1902
I3
sVi also
p1903
I5
sVisrael is
p1904
I2
sVhe decided
p1905
I2
sVall told
p1906
I1
sVpresident obama
p1907
I19
sVa few
p1908
I6
sVour progress
p1909
I1
sVgo titans
p1910
I1
sVthat wasn
p1911
I1
sVi ve
p1912
I31
sVmike where
p1913
I1
sVlabor is
p1914
I1
sVand today
p1915
I15
sVbut those
p1916
I2
sVso despite
p1917
I1
sVamerican workers
p1918
I2
sVneither of
p1919
I2
sVthe folks
p1920
I1
sVdespite her
p1921
I1
sVget to
p1922
I1
sVthe woman
p1923
I1
sVbut watching
p1924
I1
sVpeace is
p1925
I1
sVall our
p1926
I1
sVmy wife
p1927
I1
sVif anybody
p1928
I1
sVjournalists should
p1929
I1
sVamerica tsuyoshi
p1930
I1
sVand during
p1931
I4
sVwhen any
p1932
I1
sVour housing
p1933
I2
sVi reject
p1934
I2
sVgive yourselves
p1935
I1
sVonly when
p1936
I1
sVthat begins
p1937
I1
sVreally
p1938
I1
sVand an
p1939
I1
sVyes we
p1940
I7
sVand ab
p1941
I1
sVwith that
p1942
I4
sVperhaps it
p1943
I2
sVohio it
p1944
I1
sVand as
p1945
I31
sVand at
p1946
I7
sVthey serve
p1947
I1
sVfolks passed
p1948
I1
sVpeace with
p1949
I2
sVhundreds in
p1950
I1
sVwith new
p1951
I1
sVso again
p1952
I1
sVsee the
p1953
I1
sVand remind
p1954
I1
sVmoney s
p1955
I1
sVand john
p1956
I2
sVand neither
p1957
I1
sVincredible advances
p1958
I1
sVwhat do
p1959
I1
sVin pakistan
p1960
I2
sVfolks in
p1961
I1
sVso let
p1962
I26
sVpublic opinion
p1963
I1
sVyou prioritize
p1964
I1
sVthe likelihood
p1965
I1
sVit details
p1966
I1
sVi ask
p1967
I1
sVwhen you
p1968
I2
sVmy tour
p1969
I1
sVsince the
p1970
I1
sVfor those
p1971
I2
sVu n
p1972
I1
sVso were
p1973
I1
sVand meanwhile
p1974
I3
sVwe call
p1975
I2
sVevery once
p1976
I1
sVeven when
p1977
I4
sVsince 1963
p1978
I1
sVnow for
p1979
I1
sVwe may
p1980
I7
sVyou pay
p1981
I1
sVmany americans
p1982
I1
sVbut part
p1983
I5
sVwhen leland
p1984
I2
sVthey leave
p1985
I2
sVnow make
p1986
I1
sVcolleges are
p1987
I1
sVi realize
p1988
I3
sVour focus
p1989
I1
sValthough a
p1990
I1
sVwe changed
p1991
I3
sVand we
p1992
I117
sVour entire
p1993
I1
sVthen we
p1994
I2
sVthis effort
p1995
I1
sVthroughout our
p1996
I2
sVthis law
p1997
I1
sVand transitioning
p1998
I1
sVunless we
p1999
I1
sVare you
p2000
I5
sVif there
p2001
I6
sVmaybe someone
p2002
I1
sVhe ll
p2003
I1
sVthe implementation
p2004
I1
sVas we
p2005
I5
sVour overarching
p2006
I1
sVwe d
p2007
I1
sVfor now
p2008
I1
sVi talked
p2009
I1
sVwe support
p2010
I1
sValmost exactly
p2011
I1
sVfor the
p2012
I8
sVadhering to
p2013
I1
sVfolks aren
p2014
I1
sVso for
p2015
I6
sVi think
p2016
I20
sVour wonderful
p2017
I1
sVwould you
p2018
I1
sVthis will
p2019
I1
sVwith humility
p2020
I1
sVi let
p2021
I1
sVma am
p2022
I1
sVmembers of
p2023
I1
sVthe march
p2024
I1
sVmandela faced
p2025
I1
sVhow you
p2026
I2
sVevery senator
p2027
I1
sVthe fed
p2028
I2
sVbut peace
p2029
I1
sVbecause preparing
p2030
I1
sVyou help
p2031
I1
sVwe put
p2032
I1
sVgo on
p2033
I1
sVtheir base
p2034
I1
sVwe see
p2035
I4
sValthough i
p2036
I2
sVi refuse
p2037
I1
sVafter linamar
p2038
I1
sVnothing
p2039
I1
sVgood morning
p2040
I1
sVso connecticut
p2041
I1
sVken salazar
p2042
I1
sVconstruction is
p2043
I1
sVso colleges
p2044
I1
sVpeople of
p2045
I1
sVnow only
p2046
I1
sVhis pledge
p2047
I1
sVnow as
p2048
I4
sVyou could
p2049
I1
sVby the
p2050
I5
sVthese sudden
p2051
I1
sVspending time
p2052
I1
sVa world
p2053
I2
sVisrael has
p2054
I1
sVour victory
p2055
I1
sVyou live
p2056
I1
sVour workers
p2057
I1
sVthat culture
p2058
I1
sVwe made
p2059
I1
sVunder governor
p2060
I1
sVthe huddled
p2061
I1
sVhe took
p2062
I1
sVreperile
p2063
I1
sVthe arc
p2064
I1
sVgeorge h
p2065
I1
sVi probably
p2066
I1
sVit demands
p2067
I1
sVwith respect
p2068
I4
sVkeep in
p2069
I2
sVnow today
p2070
I3
sVeven as
p2071
I6
sVso more
p2072
I2
sVtrinace edwards
p2073
I1
sVnot here
p2074
I2
sVthe murder
p2075
I1
sVi go
p2076
I1
sVglobal competition
p2077
I1
sVto protect
p2078
I1
sVhe said
p2079
I5
sVin sum
p2080
I1
sVand many
p2081
I2
sVno one
p2082
I6
sVwe too
p2083
I1
sVpeace requires
p2084
I1
sVwe just
p2085
I4
sVthey would
p2086
I1
sVand companies
p2087
I1
sVand third
p2088
I1
sVand our
p2089
I10
sVnew home
p2090
I1
sVand what
p2091
I21
sVthe book
p2092
I1
sVthe twin
p2093
I1
sVso long
p2094
I1
sVevery dollar
p2095
I4
sVleaders like
p2096
I1
sVyou employ
p2097
I1
sVcoach meyer
p2098
I1
sVturns out
p2099
I1
sVkathy gaarde
p2100
I1
sVthey should
p2101
I1
sVairbus the
p2102
I1
sVsee
p2103
I1
sVtwo of
p2104
I1
sVthree pages
p2105
I1
sVlet s
p2106
I37
sVand ohio
p2107
I1
sVthat would
p2108
I2
sVthey dared
p2109
I1
sVthey chose
p2110
I1
sVpeter orszag
p2111
I1
sVyou dropped
p2112
I1
sVtoday all
p2113
I1
sVnot one
p2114
I1
sVthey ask
p2115
I1
sVthe past
p2116
I2
sVwhere foreign
p2117
I1
sVmore importantly
p2118
I2
sVits leadership
p2119
I1
sVbut tonight
p2120
I2
sVthe 30
p2121
I1
sVyou enter
p2122
I1
sVthey understand
p2123
I2
sVbut on
p2124
I1
sVyou cannot
p2125
I1
sVso whether
p2126
I2
sVand more
p2127
I3
sVwhen hurricane
p2128
I1
sVsuddenly you
p2129
I1
sVin high
p2130
I2
sVbut whenever
p2131
I1
sVyet we
p2132
I1
sVof young
p2133
I1
sVit falls
p2134
I1
sVat 11
p2135
I1
sVfortunately there
p2136
I1
sVtheir strength
p2137
I1
sVdid anybody
p2138
I1
sVand their
p2139
I2
sVthe point
p2140
I3
sVnow throughout
p2141
I1
sVto be
p2142
I1
sVmaybe they
p2143
I2
sVthat spirit
p2144
I1
sVtell those
p2145
I1
sVwe aren
p2146
I1
sVare they
p2147
I1
sVbroaden the
p2148
I1
sVour undergraduate
p2149
I1
sVthe patriots
p2150
I1
sVand yet
p2151
I16
sVand yes
p2152
I4
sVif these
p2153
I1
sVour words
p2154
I1
sVbecause our
p2155
I1
sVi recognize
p2156
I7
sVthe debt
p2157
I1
sVlast question
p2158
I1
sVeven with
p2159
I2
sVeven before
p2160
I1
sVnow so
p2161
I1
sVkids these
p2162
I1
sVcommunities just
p2163
I1
sVin a
p2164
I5
sVour first
p2165
I3
sVand government
p2166
I1
sVwe cannot
p2167
I8
sVgive tevyn
p2168
I1
sVthese were
p2169
I1
sVas americans
p2170
I2
sVafrica is
p2171
I1
sVyour generation
p2172
I2
sVi figured
p2173
I1
sVfinally many
p2174
I1
sVyou deserve
p2175
I4
sVso less
p2176
I1
sVequipping our
p2177
I1
sVmy umbrella
p2178
I1
sVthis drawdown
p2179
I1
sVfrom asia
p2180
I1
sVthink about
p2181
I12
sVa recent
p2182
I1
sVyes they
p2183
I1
sVit underwrites
p2184
I1
sVevery young
p2185
I1
sVwhether we
p2186
I1
sVeven for
p2187
I1
sVshe couldn
p2188
I2
sVall i
p2189
I1
sVthey shared
p2190
I2
sVso where
p2191
I1
sVour law
p2192
I1
sVbut without
p2193
I1
sVwe would
p2194
I1
sVjust as
p2195
I3
sVstudy after
p2196
I3
sVa hundred
p2197
I1
sVpeace entails
p2198
I1
sVso just
p2199
I2
sVnow five
p2200
I1
sVnew foreclosures
p2201
I1
sVwhen diego
p2202
I1
sVand perhaps
p2203
I1
sVso so
p2204
I1
sVwe invested
p2205
I4
sVespecially the
p2206
I1
sVin troubled
p2207
I1
sVaudience booo
p2208
I2
sVit extends
p2209
I1
sVwe detailed
p2210
I1
sVnow understand
p2211
I1
sVthe commitments
p2212
I1
sVfor they
p2213
I1
sVno lifetime
p2214
I1
sVbecause here
p2215
I1
sVthey will
p2216
I2
sVwe came
p2217
I1
sVfair wages
p2218
I1
sVpart of
p2219
I7
sVtoday more
p2220
I1
sVwestern wildfires
p2221
I1
sVsometimes i
p2222
I2
sVthe american
p2223
I7
sVbill but
p2224
I1
sVas for
p2225
I2
sVsmall business
p2226
I1
sVlearning to
p2227
I1
sVyou still
p2228
I1
sVafter enjoying
p2229
I1
sVand quite
p2230
I1
sVthey just
p2231
I1
sVhere s
p2232
I4
sVand those
p2233
I11
sVwhere there
p2234
I1
sVto abandon
p2235
I1
sVrather these
p2236
I1
sVand add
p2237
I1
sVwith a
p2238
I2
sVthe housing
p2239
I1
sVnobody could
p2240
I1
sVbut where
p2241
I1
sVand part
p2242
I5
sVconsumers had
p2243
I1
sVthe majority
p2244
I4
sVit can
p2245
I6
sVmyrna has
p2246
I1
sVchip reid
p2247
I1
sVnow scientists
p2248
I1
sVformer secretary
p2249
I1
sVyour children
p2250
I1
sVthat was
p2251
I3
sVfrom mali
p2252
I1
sVthis plan
p2253
I1
sVobviously you
p2254
I1
sVcharges have
p2255
I1
sVthat all
p2256
I1
sVso as
p2257
I4
sVyou definitely
p2258
I1
sVyes terrible
p2259
I1
sVthey lived
p2260
I1
sVnow to
p2261
I4
sVjust because
p2262
I2
sVlet other
p2263
I1
sVso passing
p2264
I1
sVthe regime
p2265
I1
sVi was
p2266
I13
sVour journey
p2267
I3
sVas someone
p2268
I1
sVwhat might
p2269
I2
sVthose regimes
p2270
I1
sVwe acted
p2271
I1
sVand around
p2272
I1
sVneither i
p2273
I1
sVnobody can
p2274
I1
sVand sadly
p2275
I1
sVall right
p2276
I6
sVfor through
p2277
I1
sVfor peace
p2278
I1
sVwhere s
p2279
I3
sVhow about
p2280
I2
sVthese twin
p2281
I1
sVthe product
p2282
I1
sVabsolutely
p2283
I1
sVfor a
p2284
I1
sVit pays
p2285
I1
sVgive jorge
p2286
I1
sVbut today
p2287
I7
sVmost middle
p2288
I1
sVbut along
p2289
I2
sVbut no
p2290
I2
sVfor months
p2291
I1
sVit also
p2292
I1
sVthat remains
p2293
I1
sVnow that
p2294
I7
sVit will
p2295
I14
sVoutstanding secretary
p2296
I1
sVbecause once
p2297
I1
sVfor over
p2298
I4
sVthreats to
p2299
I1
sVthe panama
p2300
I1
sVand while
p2301
I17
sVso recognize
p2302
I1
sVevery fall
p2303
I1
sVchuck todd
p2304
I1
sVand its
p2305
I1
sVbut and
p2306
I1
sVyour outstanding
p2307
I2
sVthese restrictions
p2308
I1
sVnancy says
p2309
I1
sVhe helped
p2310
I2
sVfor generations
p2311
I2
sVmore americans
p2312
I4
sVliving their
p2313
I1
sVsometimes it
p2314
I3
sVwithout this
p2315
I1
sViranians have
p2316
I1
sVinstead of
p2317
I5
sVare we
p2318
I1
sVas morehouse
p2319
I2
sVhe could
p2320
I1
sVand through
p2321
I3
sVi hear
p2322
I3
sVso class
p2323
I3
sVfrom congo
p2324
I1
sVthere are
p2325
I41
sVbecause for
p2326
I2
sVso was
p2327
I1
sVit wasn
p2328
I1
sVcongratulations class
p2329
I1
sVthey not
p2330
I1
sVmaybe it
p2331
I1
sVin just
p2332
I1
sVfor some
p2333
I1
sVtheir answer
p2334
I2
sVto boost
p2335
I1
sVbut some
p2336
I2
sVthere will
p2337
I7
sVford is
p2338
I2
sVbecause an
p2339
I1
sVamericans are
p2340
I1
sVthis single
p2341
I1
sVi urge
p2342
I2
sVother of
p2343
I1
sVwe won
p2344
I1
sVgive lydia
p2345
I1
sVthey ll
p2346
I6
sVonly congress
p2347
I1
sVthe effort
p2348
I1
sVtoday no
p2349
I1
sVhe can
p2350
I1
sVnearly 7
p2351
I1
sVyou now
p2352
I1
sVthere were
p2353
I3
sVthe days
p2354
I1
sVour values
p2355
I1
sVlincoln himself
p2356
I1
sVfive trillion
p2357
I1
sVso even
p2358
I4
sVhe says
p2359
I1
sVwe remember
p2360
I2
sVtoday s
p2361
I1
sVthe remaining
p2362
I1
sVas president
p2363
I5
sVthey passed
p2364
I1
sVtoday a
p2365
I2
sVstand up
p2366
I4
sVtoday i
p2367
I12
sVthat flag
p2368
I2
sVdespite that
p2369
I1
sVand moreover
p2370
I1
sVthe entire
p2371
I1
sVmost though
p2372
I1
sVnumber four
p2373
I2
sVhello bulls
p2374
I1
sVforty three
p2375
I1
sVtheir victory
p2376
I1
sVi tried
p2377
I1
sVbecause we
p2378
I5
sVjoe garcia
p2379
I1
sVthey are
p2380
I6
sVjohn sarbanes
p2381
I1
sVwe sell
p2382
I1
sVmoreover we
p2383
I1
sVbecause democrats
p2384
I1
sVthe test
p2385
I1
sVover 100
p2386
I1
sVtwo questions
p2387
I1
sVcould it
p2388
I1
sVsoon you
p2389
I1
sVbut once
p2390
I4
sVand janice
p2391
I1
sVwhere did
p2392
I1
sVrichard nixon
p2393
I1
sVq do
p2394
I1
sVpeace
p2395
I1
sVand the
p2396
I61
sVand along
p2397
I1
sVso they
p2398
I2
sVnow cincinnati
p2399
I1
sVthe bill
p2400
I1
sVsometimes they
p2401
I1
sVwhen desiline
p2402
I1
sVwell you
p2403
I1
sVmost moms
p2404
I1
sVand soon
p2405
I2
sVthe knowledge
p2406
I1
sVthe iraq
p2407
I1
sVshe would
p2408
I1
sVthe promise
p2409
I1
sVgod is
p2410
I1
sVmy job
p2411
I1
sVour goal
p2412
I2
sVif our
p2413
I2
sVsometimes companies
p2414
I1
sVevery night
p2415
I1
sVhello
p2416
I1
sVthese rockets
p2417
I1
sVwe helped
p2418
I1
sVbecause when
p2419
I3
sVshe stood
p2420
I1
sVif anyone
p2421
I2
sVthese reforms
p2422
I1
sVhis goal
p2423
I1
sVit called
p2424
I1
sVby age
p2425
I1
sVbaltimore has
p2426
I1
sVfor sometimes
p2427
I1
sVwith all
p2428
I1
sVso no
p2429
I1
sVthe republican
p2430
I1
sVthat can
p2431
I1
sVto secretary
p2432
I1
sVgive mom
p2433
I1
sVsenators like
p2434
I1
sVmore and
p2435
I1
sVbusinesses of
p2436
I1
sVthere they
p2437
I2
sVmichael what
p2438
I1
sVwe might
p2439
I1
sVour job
p2440
I1
sVtidjane he
p2441
I1
sVit endangers
p2442
I1
sVwe believe
p2443
I3
sVand madiba
p2444
I1
sVviolence on
p2445
I1
sVdoing an
p2446
I1
sVthe international
p2447
I1
sVwe shouldn
p2448
I3
sVin sentencing
p2449
I1
sVthese aren
p2450
I1
sVbut foreign
p2451
I1
sVwe read
p2452
I1
sVall these
p2453
I2
sVin hopkinton
p2454
I1
sVsecond there
p2455
I1
sVaid cannot
p2456
I1
sVthese initiatives
p2457
I1
sVand jazmin
p2458
I1
sVto achieve
p2459
I1
sVcorporate profits
p2460
I3
sVnow america
p2461
I1
sVthe net
p2462
I1
sVthis fall
p2463
I1
sVit hasn
p2464
I1
sVwe deplore
p2465
I1
sVof all
p2466
I1
sVamerica we
p2467
I1
sVafter all
p2468
I7
sVtwo years
p2469
I2
sVprogress didn
p2470
I1
sVthat happened
p2471
I2
sVby now
p2472
I1
sVi bet
p2473
I1
sVso sometimes
p2474
I1
sVour true
p2475
I1
sVunconditional love
p2476
I1
sVi like
p2477
I2
sVq and
p2478
I2
sVthey were
p2479
I12
sVin today
p2480
I1
sVi kept
p2481
I1
sVgone in
p2482
I1
sVafter they
p2483
I1
sVboeing is
p2484
I1
sVbut class
p2485
I1
sVlast week
p2486
I2
sVthey know
p2487
I4
sVour courts
p2488
I1
sVlater on
p2489
I1
sVis he
p2490
I1
sVthose conversations
p2491
I1
sVwe launched
p2492
I1
sVthe previous
p2493
I1
sVanyway i
p2494
I1
sVwhen i
p2495
I16
sVfamilies who
p2496
I1
sVfinally as
p2497
I1
sVhello phoenix
p2498
I1
sVwhen a
p2499
I3
sVat this
p2500
I1
sVfederally supported
p2501
I1
sVjust to
p2502
I2
sVtoday each
p2503
I1
sVshe looks
p2504
I1
sVand remember
p2505
I1
sVyou make
p2506
I1
sVso demographics
p2507
I1
sVthat will
p2508
I6
sVfor what
p2509
I3
sVbecause after
p2510
I1
sVover 1
p2511
I1
sVinstagram was
p2512
I1
sVwhere i
p2513
I1
sVthese days
p2514
I1
sVjust a
p2515
I1
sVnegotiations will
p2516
I1
sVand people
p2517
I2
sVchancellor merkel
p2518
I1
sVif they
p2519
I10
sVhowdy manor
p2520
I1
sVstudents who
p2521
I2
sVno other
p2522
I1
sVyet while
p2523
I1
sVyesterday we
p2524
I1
sVand how
p2525
I3
sVfamilies are
p2526
I1
sVterrific members
p2527
I1
sVpeace will
p2528
I1
sVmike was
p2529
I1
sVfrom micro
p2530
I1
sVand now
p2531
I12
sVyour loved
p2532
I1
sVthis idea
p2533
I1
sVbut it
p2534
I22
sVbut god
p2535
I1
sVso far
p2536
I2
sVdon t
p2537
I15
sVhow is
p2538
I1
sVforemost among
p2539
I1
sVbut in
p2540
I8
sVto win
p2541
I1
sVthe cost
p2542
I1
sVi told
p2543
I1
sVafter shedding
p2544
I1
sVlet your
p2545
I1
sVwe also
p2546
I7
sVbut history
p2547
I1
sVdr king
p2548
I1
sVwe carry
p2549
I2
sVmost gun
p2550
I1
sVour efforts
p2551
I4
sVthis is
p2552
I51
sVyou must
p2553
I1
sVa rebuilt
p2554
I1
sVour collective
p2555
I1
sVand to
p2556
I3
sVnot in
p2557
I1
sVeverybody is
p2558
I1
sVif states
p2559
I1
sVas has
p2560
I2
sVhe is
p2561
I5
sVyou would
p2562
I1
sVso the
p2563
I24
sVyour country
p2564
I1
sVwe fought
p2565
I1
sVthis plant
p2566
I1
sVthanks to
p2567
I4
sVopenness won
p2568
I1
sVsometimes there
p2569
I1
sVi transferred
p2570
I1
sVour overriding
p2571
I1
sVour union
p2572
I1
sVso tonight
p2573
I9
sVin somalia
p2574
I1
sVbut mainly
p2575
I1
sVthe road
p2576
I1
sVpeople still
p2577
I1
sVcome to
p2578
I1
sVwe get
p2579
I1
sVa year
p2580
I2
sVtargeted action
p2581
I1
sVbecause they
p2582
I5
sVour intelligence
p2583
I1
sVi look
p2584
I1
sVi gave
p2585
I1
sVso that
p2586
I20
sVq congress
p2587
I1
sVa secure
p2588
I2
sVour allies
p2589
I1
sVassad must
p2590
I1
sVacross america
p2591
I1
sVnow graduates
p2592
I1
sVoften they
p2593
I1
sVunions got
p2594
I1
sViraq shows
p2595
I1
sVthis can
p2596
I1
sVcurrent talks
p2597
I1
sVand number
p2598
I4
sVtoday they
p2599
I1
sVbut yes
p2600
I1
sVbut more
p2601
I5
sVthose with
p2602
I1
sVin 1990
p2603
I1
sVshe sounded
p2604
I1
sVbut technology
p2605
I2
sVtimes are
p2606
I1
sVthwarting homegrown
p2607
I1
sVwell those
p2608
I1
sVthe relationship
p2609
I1
sVi set
p2610
I1
sVby enrolling
p2611
I1
sVso yes
p2612
I3
sVeveryone understands
p2613
I1
sVand newtown
p2614
I1
sVbecause as
p2615
I1
sVso be
p2616
I1
sVour work
p2617
I1
sVhe s
p2618
I9
sVthat doesn
p2619
I8
sVand someday
p2620
I1
sVbut can
p2621
I1
sVtonight let
p2622
I1
sVthe absence
p2623
I1
sVso find
p2624
I1
sVwe forget
p2625
I1
sVhe hopes
p2626
I1
sVnow many
p2627
I1
sVyou step
p2628
I1
sVremember the
p2629
I1
sVmore likely
p2630
I1
sVthey took
p2631
I1
sVthe juries
p2632
I1
sVand whether
p2633
I1
sVthose are
p2634
I9
sVit does
p2635
I5
sVour broken
p2636
I1
sVit could
p2637
I4
sVbut looking
p2638
I1
sVand four
p2639
I1
sVinaction tears
p2640
I1
sVrelease them
p2641
I1
sVsimply put
p2642
I1
sVand tomorrow
p2643
I1
sVensuring that
p2644
I1
sVmayor alvin
p2645
I1
sVcertain offices
p2646
I1
sVto live
p2647
I1
sVnow something
p2648
I1
sVhello cape
p2649
I1
sVmany risked
p2650
I1
sVin eastern
p2651
I1
sVno aid
p2652
I1
sVq can
p2653
I1
sVtheir insurance
p2654
I1
sVdo you
p2655
I4
sVthe overwhelming
p2656
I1
sVwe lose
p2657
I3
sVby promoting
p2658
I1
sVsince 2006
p2659
I1
sVif somebody
p2660
I2
sVa decade
p2661
I1
sVanother way
p2662
I1
sVso anyone
p2663
I1
sVeverybody give
p2664
I1
sVone man
p2665
I1
sVthe toll
p2666
I1
sVshe dressed
p2667
I1
sVwe have
p2668
I24
sVnow you
p2669
I4
sVa company
p2670
I1
sVone hundred
p2671
I1
sVone in
p2672
I2
sVin pursuit
p2673
I1
sVbut he
p2674
I5
sVreducing inequality
p2675
I1
sVand also
p2676
I3
sVone is
p2677
I1
sVone it
p2678
I1
sVto combine
p2679
I1
sVwouldn t
p2680
I5
sVand women
p2681
I1
sVthe longer
p2682
I1
sVthe old
p2683
I1
sVlilly worked
p2684
I1
sVnow more
p2685
I1
sVinescapable pockets
p2686
I1
sVand she
p2687
I6
sVnew york
p2688
I1
sVthe core
p2689
I1
sVnowhere have
p2690
I1
sVwhen folks
p2691
I1
sVi pack
p2692
I1
sValready the
p2693
I2
sVdemocrats they
p2694
I1
sVwhere you
p2695
I3
sVat a
p2696
I3
sVright here
p2697
I1
sVwe ll
p2698
I30
sVyou were
p2699
I3
sVplease everybody
p2700
I1
sVmayor brown
p2701
I1
sVnearly 3
p2702
I1
sVthe reason
p2703
I2
sVthe cold
p2704
I1
sVand whenever
p2705
I2
sVwhy on
p2706
I1
sVa clear
p2707
I1
sVat some
p2708
I2
sVaudience we
p2709
I3
sVjazmin didn
p2710
I1
sVbecause if
p2711
I4
sVone was
p2712
I1
sVstep five
p2713
I1
sVfew have
p2714
I1
sVamerica needs
p2715
I4
sVhuge strides
p2716
I1
sVbut probably
p2717
I1
sVonce a
p2718
I1
sVso give
p2719
I1
sVthe service
p2720
I1
sVwalmart deserves
p2721
I1
sVsteelworkers plumbers
p2722
I1
sVq
p2723
I1
sVwe hear
p2724
I3
sVattorney general
p2725
I2
sVthey saw
p2726
I2
sVwe took
p2727
I2
sVthey re
p2728
I34
sVshe is
p2729
I1
sVwhy don
p2730
I1
sVbut they
p2731
I8
sVand don
p2732
I1
sVany woman
p2733
I1
sVit becomes
p2734
I2
sVafter consultations
p2735
I1
sVthey actually
p2736
I1
sVour alliance
p2737
I1
sVthen rather
p2738
I1
sVto not
p2739
I2
sVthe joy
p2740
I1
sVi remember
p2741
I1
sVisraelis understand
p2742
I1
sVas i
p2743
I9
sVand most
p2744
I8
sVwe ve
p2745
I103
sVis this
p2746
I1
sVmore than
p2747
I6
sVif peace
p2748
I1
sVhello chicago
p2749
I1
sVthe non
p2750
I1
sVintransigence must
p2751
I1
sVpeople who
p2752
I1
sVthe day
p2753
I1
sVour government
p2754
I1
sVafter placing
p2755
I1
sVimmigration makes
p2756
I1
sVyou deliver
p2757
I1
sVsomebody loses
p2758
I1
sVour trade
p2759
I1
sVwe deeply
p2760
I1
sVbut beyond
p2761
I1
sVplease
p2762
I1
sVyou realize
p2763
I2
sVsales are
p2764
I1
sVit is
p2765
I42
sVi heard
p2766
I1
sVwe cracked
p2767
I1
sVevery man
p2768
I1
sVthe path
p2769
I1
sVthe senate
p2770
I2
sVinvestments in
p2771
I1
sVi cannot
p2772
I2
sVbut make
p2773
I2
sVor we
p2774
I2
sVreading is
p2775
I1
sVbut to
p2776
I6
sVmany had
p2777
I1
sVso matt
p2778
I1
sVgovernments matter
p2779
I1
sVno single
p2780
I1
sVmake no
p2781
I1
sVby staying
p2782
I1
sVand among
p2783
I1
sVshortly after
p2784
I1
sVpeople like
p2785
I1
sVtonight we
p2786
I1
sVto care
p2787
I1
sVi should
p2788
I1
sVfor our
p2789
I1
sVi face
p2790
I1
sVall that
p2791
I2
sVwell thank
p2792
I1
sVso now
p2793
I4
sVcongress has
p2794
I2
sVso not
p2795
I1
sVthe kids
p2796
I2
sVbecause these
p2797
I1
sVbut last
p2798
I1
sVthe country
p2799
I1
sValready more
p2800
I1
sVso she
p2801
I2
sVso part
p2802
I2
sVnow we
p2803
I9
sVparents who
p2804
I1
sVtoday our
p2805
I3
sVno matter
p2806
I1
sVgradually the
p2807
I1
sVinequality will
p2808
I1
sVbefore i
p2809
I1
sV1 800
p2810
I1
sVthis republican
p2811
I1
sVin entertainment
p2812
I1
sVq meanwhile
p2813
I1
sVwe unequivocally
p2814
I1
sVgive her
p2815
I1
sVwhere we
p2816
I1
sVguys can
p2817
I1
sVnow even
p2818
I6
sVthey did
p2819
I1
sVand diego
p2820
I1
sVnot weakening
p2821
I1
sVyou wear
p2822
I1
sVjohn said
p2823
I1
sVstudentaid gov
p2824
I1
sVwe can
p2825
I36
sVyears of
p2826
I1
sVtime out
p2827
I1
sVthe congress
p2828
I1
sVfourth and
p2829
I1
sVthis small
p2830
I1
sVobviously old
p2831
I1
sVnow our
p2832
I1
sVaround the
p2833
I1
sVwell starting
p2834
I2
sVa peace
p2835
I1
sVthese facts
p2836
I1
sVbefore you
p2837
I1
sVinsurers are
p2838
I1
sVwalmart is
p2839
I1
sVbill plante
p2840
I1
sVwe decided
p2841
I1
sVi see
p2842
I4
sVfirst we
p2843
I6
sVgives you
p2844
I1
sVthey faced
p2845
I2
sVmr hoyer
p2846
I1
sVeverybody wins
p2847
I1
sVi raise
p2848
I1
sVand every
p2849
I4
sVpush your
p2850
I1
sVand even
p2851
I10
sVthat pushes
p2852
I1
sVthe fbi
p2853
I1
sVdr janis
p2854
I1
sVthe potential
p2855
I2
sVnow after
p2856
I1
sVsince i
p2857
I1
sVthose were
p2858
I1
sVi honestly
p2859
I1
sVand ever
p2860
I1
sVand although
p2861
I2
sVthe time
p2862
I1
sVhe knows
p2863
I1
sVthousands were
p2864
I1
sVyou have
p2865
I6
sVwe buy
p2866
I1
sVsylvia frasier
p2867
I1
sVwe worked
p2868
I1
sVsince 9
p2869
I1
sVfrank kohler
p2870
I1
sVthey point
p2871
I1
sVwas it
p2872
I2
sVwelcome to
p2873
I1
sVthe syrian
p2874
I2
sVmanufacturing was
p2875
I1
sVaudience fired
p2876
I3
sVfor while
p2877
I2
sVnot surprisingly
p2878
I1
sVi will
p2879
I6
sVthis would
p2880
I1
sVtwenty million
p2881
I1
sVwhere is
p2882
I1
sVnever had
p2883
I1
sVeight septembers
p2884
I1
sVeven so
p2885
I1
sVmaybe dick
p2886
I1
sVthe house
p2887
I2
sVthe executives
p2888
I1
sVso your
p2889
I1
sVit includes
p2890
I1
sVthe average
p2891
I2
sVthat we
p2892
I1
sVin these
p2893
I1
sVmight that
p2894
I1
sVyou withdrew
p2895
I1
sVfolks right
p2896
I1
sVbillions have
p2897
I1
sVi need
p2898
I3
sVand initially
p2899
I1
sVand had
p2900
I1
sVguess what
p2901
I1
sVthere have
p2902
I1
sVshe has
p2903
I2
sVand real
p2904
I1
sVour founders
p2905
I1
sVwhether you
p2906
I1
sVbut the
p2907
I27
sVso those
p2908
I2
sVmeanwhile we
p2909
I1
sVthere might
p2910
I1
sVfrom senegal
p2911
I1
sVpursuing that
p2912
I1
sVno program
p2913
I1
sVto all
p2914
I3
sVmindful that
p2915
I1
sVthe seas
p2916
I1
sVsome of
p2917
I15
sVnow most
p2918
I1
sVjust today
p2919
I1
sVpull them
p2920
I1
sVall righty
p2921
I1
sVbut we
p2922
I48
sVnot just
p2923
I5
sVjust visit
p2924
I2
sVnumber one
p2925
I6
sVmichelle and
p2926
I4
sVcongressman bobby
p2927
I1
sVand given
p2928
I7
sVan israeli
p2929
I1
sVten days
p2930
I1
sVpeople with
p2931
I1
sVour fates
p2932
I1
sVso governor
p2933
I1
sVfor we
p2934
I3
sVshe deployed
p2935
I1
sVfor all
p2936
I1
sVpeople aren
p2937
I1
sVi d
p2938
I5
sVsomeone who
p2939
I1
sVmayor wowereit
p2940
I1
sVthe evidence
p2941
I1
sVi m
p2942
I60
sVthis review
p2943
I1
sVwhat makes
p2944
I2
sVand nothing
p2945
I1
sVfamilies and
p2946
I1
sVan end
p2947
I1
sVwe learn
p2948
I1
sVas the
p2949
I5
sVmonths ago
p2950
I1
sVq what
p2951
I1
sVmatt is
p2952
I1
sVthe wall
p2953
I1
sVeven now
p2954
I1
sVless than
p2955
I2
sVwhen wealth
p2956
I1
sVmore africans
p2957
I1
sVand do
p2958
I1
sVdivest
p2959
I1
sVdespite all
p2960
I1
sVbut having
p2961
I2
sVin this
p2962
I1
sVand contrary
p2963
I1
sVbut president
p2964
I1
sVto persevere
p2965
I1
sVhow zit
p2966
I1
sVwhen bombs
p2967
I1
sVthese attacks
p2968
I1
sVyou protect
p2969
I1
sVthird thing
p2970
I1
sVnext year
p2971
I1
sVhere why
p2972
I1
sVtoday we
p2973
I6
sVlikewise those
p2974
I1
sVal qaeda
p2975
I2
sVafter everything
p2976
I1
sVmanor that
p2977
I1
sVfirst to
p2978
I1
sVwe come
p2979
I1
sVi imagine
p2980
I1
sVbut taking
p2981
I1
sVbut keep
p2982
I1
sVhow does
p2983
I1
sVit seems
p2984
I1
sVan america
p2985
I2
sVgo back
p2986
I47
sVsuccess may
p2987
I1
sVif we
p2988
I19
sVwe oppose
p2989
I1
sVair traffic
p2990
I1
sVonly a
p2991
I2
sVi welcome
p2992
I1
sVthrough respect
p2993
I1
sVa nuclear
p2994
I1
sVgrowing opportunity
p2995
I1
sVvictory will
p2996
I1
sVeverybody who
p2997
I1
sVthe results
p2998
I1
sVour businesses
p2999
I1
sVand taxpayers
p3000
I1
sVnelson mandela
p3001
I1
sVbecause this
p3002
I1
sVbut everybody
p3003
I1
sVin khayelitsha
p3004
I1
sVand ultimately
p3005
I1
sVsanibona
p3006
I1
sVthe size
p3007
I1
sVfrederick started
p3008
I1
sVthe auto
p3009
I1
sVincentives to
p3010
I1
sVi might
p3011
I4
sVi disagree
p3012
I1
sVseven years
p3013
I1
sVhow often
p3014
I1
sVas was
p3015
I1
sVit originated
p3016
I1
sVq you
p3017
I3
sVthere may
p3018
I1
sVso my
p3019
I4
sVprevent an
p3020
I1
sVsome i
p3021
I1
sVbut when
p3022
I5
sVgot a
p3023
I1
sVwe will
p3024
I24
sVso why
p3025
I1
sVand are
p3026
I2
sVan economy
p3027
I2
sVthe mandate
p3028
I1
sVyou re
p3029
I12
sVpolice chiefs
p3030
I1
sVhere at
p3031
I8
sVnow one
p3032
I2
sVfewer people
p3033
I1
sVit must
p3034
I2
sVwe all
p3035
I3
sVasking for
p3036
I1
sVit felt
p3037
I1
sVin recent
p3038
I1
sVevery day
p3039
I8
sVthe gap
p3040
I1
sVamerica our
p3041
I1
sVwoodlawn is
p3042
I1
sVi want
p3043
I65
sVsenators from
p3044
I1
sVthe ceo
p3045
I1
sVso because
p3046
I1
sVso number
p3047
I1
sVyour senators
p3048
I1
sVnow some
p3049
I2
sVmy fellow
p3050
I2
sVthis special
p3051
I1
sVmany of
p3052
I4
sVamerica will
p3053
I3
sVso don
p3054
I1
sVso our
p3055
I1
sVso moving
p3056
I1
sVgreat job
p3057
I1
sVbut overall
p3058
I1
sVbut if
p3059
I19
sVwith additional
p3060
I1
sVthat has
p3061
I2
sVand reversing
p3062
I1
sVso in
p3063
I11
sVas soon
p3064
I2
sVthe united
p3065
I4
sVarab states
p3066
I2
sVthe irish
p3067
I1
sVmolweni
p3068
I1
sVsome ideas
p3069
I1
sVwe keep
p3070
I1
sVq thank
p3071
I7
sVwhile mohamed
p3072
I1
sVthe vice
p3073
I1
sVhow can
p3074
I2
sVthe threat
p3075
I1
sVthey d
p3076
I1
sVno that
p3077
I1
sVyou all
p3078
I1
sVsons and
p3079
I1
sVto vice
p3080
I1
sVand on
p3081
I3
sVi tell
p3082
I2
stp3083
Rp3084
sg25
I2824
sg26
F9200.0
sbs(g9
g331
tp3085
g0
(g14
g2
Ntp3086
Rp3087
(dp3088
g18
F0.5
sg19
I185
sg20
g21
((dp3089
I0
I1
sI1
I32
sI2
I104
sI3
I42
sI4
I2
sI5
I1
sI6
I1
sI9
I1
sI11
I1
stp3090
Rp3091
sg25
I16
sg26
F193.0
sbs(g8
g142
tp3092
g0
(g14
g2
Ntp3093
Rp3094
(dp3095
g18
F0.5
sg19
I7788
sg20
g21
((dp3096
Vnot change
p3097
I1
sVgo around
p3098
I1
sVhouse repaired
p3099
I1
sVkind introduction
p3100
I1
sVthe bag
p3101
I1
sVthe bad
p3102
I1
sVthat early
p3103
I1
sVassociated press
p3104
I1
sVfew myself
p3105
I1
sVs done
p3106
I1
sVcommon purpose
p3107
I3
sVthey graduate
p3108
I1
sVthe president
p3109
I1
sVfor seniors
p3110
I1
sVafford this
p3111
I2
sVto prevent
p3112
I1
sVall people
p3113
I1
sVnever died
p3114
I1
sVrude awakening
p3115
I1
sVcan control
p3116
I1
sVto doing
p3117
I2
sVthe chinese
p3118
I1
sVget better
p3119
I3
sVabout hair
p3120
I1
sVeven easier
p3121
I1
sVa day
p3122
I1
sVthat feeling
p3123
I1
sVcomponent parts
p3124
I1
sVthis direction
p3125
I1
sVany benefits
p3126
I1
sVhadiya pendleton
p3127
I2
sVincome families
p3128
I1
sVrepublican ideas
p3129
I1
sVof repair
p3130
I1
sVdate tonight
p3131
I1
sVsupport group
p3132
I1
sVbeautiful day
p3133
I1
sVperfect union
p3134
I1
sVnew technologies
p3135
I1
sVnewest senator
p3136
I1
sVreally true
p3137
I1
sVyour shoulders
p3138
I1
sVdrug laws
p3139
I1
sVi voted
p3140
I1
sVour task
p3141
I1
sVfederal exchange
p3142
I2
sVqualified teachers
p3143
I1
sVmr president
p3144
I9
sVon performance
p3145
I1
sVgoods overseas
p3146
I1
sVin history
p3147
I2
sVmy name
p3148
I1
sVabout policy
p3149
I1
sVshutdown is
p3150
I1
sVproblems either
p3151
I1
sVbecome doctors
p3152
I1
sVour character
p3153
I1
sVago today
p3154
I1
sVi day
p3155
I1
sVdeploy there
p3156
I1
sVthis point
p3157
I1
sVfull potential
p3158
I1
sVfundamental ideals
p3159
I1
sVdifferent languages
p3160
I1
sVgeneration american
p3161
I1
sVon that
p3162
I1
sVnational average
p3163
I1
sVmorally justified
p3164
I1
sVyet proposing
p3165
I1
sVand respected
p3166
I1
sVhello buckeyes
p3167
I1
sVeast asia
p3168
I1
sVdream bigger
p3169
I1
sVour deficits
p3170
I3
sVhis heart
p3171
I1
sVacademic lives
p3172
I1
sVeight years
p3173
I1
sVyour thought
p3174
I1
sVamericans again
p3175
I1
sVbest value
p3176
I2
sVthese things
p3177
I1
sVthree points
p3178
I1
sVswift album
p3179
I1
sVmonths ahead
p3180
I2
sV12 14
p3181
I1
sVpopulation centers
p3182
I1
sVunder control
p3183
I2
sVbuilding stuff
p3184
I1
sVin place
p3185
I7
sVone heckler
p3186
I1
sVeastern europe
p3187
I1
sVdoing better
p3188
I1
sVits promise
p3189
I2
sVto contribute
p3190
I1
sVnew offices
p3191
I1
sVthe plant
p3192
I1
sVthat business
p3193
I2
sVchoices too
p3194
I1
sVthings happen
p3195
I2
sVthe meal
p3196
I1
sVbullet wounds
p3197
I1
sVall things
p3198
I1
sVwestern exports
p3199
I1
sVthat works
p3200
I2
sVto happiness
p3201
I1
sVknow that
p3202
I4
sVin pennsylvania
p3203
I1
sVstate average
p3204
I1
sVbetter america
p3205
I1
sVthank you
p3206
I47
sVfor school
p3207
I1
sVs bills
p3208
I2
sVfirst time
p3209
I2
sVwe want
p3210
I2
sVtogether chattanooga
p3211
I1
sVcannot drift
p3212
I1
sVany better
p3213
I1
sVwithout delay
p3214
I1
sVs currents
p3215
I1
sVto stay
p3216
I3
sVamerica working
p3217
I1
sVour destiny
p3218
I1
sVcivilian casualties
p3219
I2
sVa state
p3220
I1
sVlaw enforcement
p3221
I2
sVcan be
p3222
I2
sVchildren scarred
p3223
I1
sVschools yet
p3224
I1
sVrequires responsibility
p3225
I2
sVsome workers
p3226
I1
sVa prompter
p3227
I1
sVis well
p3228
I1
sVstuff done
p3229
I2
sVyou back
p3230
I3
sVits commitments
p3231
I1
sVsome money
p3232
I1
sVteam leader
p3233
I1
sVaurora
p3234
I1
sVcyber attacks
p3235
I1
sVthe constitution
p3236
I1
sVbetter life
p3237
I3
sVmy home
p3238
I1
sVper month
p3239
I4
sVtheir operations
p3240
I1
sVsense reform
p3241
I1
sVyou can
p3242
I1
sVof distractions
p3243
I1
sVour obligation
p3244
I1
sVinternational rules
p3245
I1
sVeconomic prosperity
p3246
I1
sVinnocent africans
p3247
I1
sVrecap here
p3248
I1
sVamerican story
p3249
I4
sVtask force
p3250
I1
sVtheir eyes
p3251
I1
sVnuclear stockpiles
p3252
I1
sVother people
p3253
I1
sVit would
p3254
I1
sVwealthiest seniors
p3255
I1
sVyour kids
p3256
I2
sVtook place
p3257
I1
sVthat up
p3258
I1
sVthis works
p3259
I3
sVtake it
p3260
I1
sVfrom me
p3261
I1
sVlived overseas
p3262
I1
sVis there
p3263
I1
sVnot reality
p3264
I1
sVwartime spending
p3265
I1
sVbless west
p3266
I1
sVteddy roosevelt
p3267
I1
sVappreciate you
p3268
I1
sV50 percent
p3269
I1
sVsome way
p3270
I1
sVinternational control
p3271
I1
sVto do
p3272
I27
sVtheir home
p3273
I1
sVin syria
p3274
I4
sVcosts better
p3275
I1
sV237 years
p3276
I1
sVstorm coming
p3277
I1
sVt understand
p3278
I1
sVracial society
p3279
I1
sVthese fights
p3280
I1
sVbye bye
p3281
I1
sVneed help
p3282
I1
sVeven higher
p3283
I1
sVlight on
p3284
I1
sVa lot
p3285
I2
sVcare enough
p3286
I1
sVin cambridge
p3287
I1
sVfrom overseas
p3288
I1
sVthose promises
p3289
I1
sVin manufacturing
p3290
I3
sVwant that
p3291
I1
sVthey work
p3292
I1
sVschool education
p3293
I1
sVsemper fi
p3294
I1
sVsteadily healing
p3295
I1
sVextraordinary film
p3296
I1
sVbig gap
p3297
I1
sVa bill
p3298
I1
sVdeferred action
p3299
I1
sVbeen done
p3300
I1
sVbeing done
p3301
I1
sVenvironmental challenges
p3302
I1
sVnot ours
p3303
I1
sVpolitical will
p3304
I1
sVus still
p3305
I1
sVhis eyes
p3306
I1
sVof words
p3307
I1
sVfractured country
p3308
I1
sVtheir lives
p3309
I4
sVfrom recession
p3310
I1
sVincreased oversight
p3311
I1
sVreducing costs
p3312
I1
sVmight know
p3313
I1
sVwrong way
p3314
I1
sVcripple automakers
p3315
I1
sVoil companies
p3316
I1
sVcity too
p3317
I1
sVinvolves research
p3318
I1
sVnot one
p3319
I1
sVs happening
p3320
I1
sVa difference
p3321
I10
sVof aggression
p3322
I1
sVgeographic differences
p3323
I1
sVgiven them
p3324
I1
sVyou will
p3325
I1
sVstrong institutions
p3326
I1
sVnext month
p3327
I4
sVeconomy forward
p3328
I1
sVoak creek
p3329
I1
sVhave power
p3330
I1
sVare evolving
p3331
I1
sVis enough
p3332
I1
sVthis year
p3333
I7
sVchecks altogether
p3334
I1
sVtry anything
p3335
I1
sVs chapel
p3336
I1
sVs success
p3337
I1
sVour diplomacy
p3338
I1
sVthe night
p3339
I1
sVbe forgotten
p3340
I1
sVjuly 12th
p3341
I1
sVpaid for
p3342
I1
sVinnovation center
p3343
I1
sVfor president
p3344
I2
sVsays hello
p3345
I1
sVcutting edge
p3346
I3
sVto change
p3347
I6
sVviolent conflict
p3348
I1
sVincredible moment
p3349
I1
sVlargest emitter
p3350
I1
sVgoing through
p3351
I1
sVin pakistan
p3352
I1
sVcompare cars
p3353
I1
sVour world
p3354
I2
sVwith debt
p3355
I1
sVfederal budget
p3356
I1
sVthe game
p3357
I2
sVamerican president
p3358
I1
sVis here
p3359
I19
sVin iraq
p3360
I5
sVwho suffer
p3361
I1
sVto behave
p3362
I1
sVyou know
p3363
I1
sValready happened
p3364
I2
sVfortunate few
p3365
I1
sVcertainly older
p3366
I1
sVoutstanding workers
p3367
I1
sVget engaged
p3368
I1
sVher dream
p3369
I1
sVof presentations
p3370
I1
sVsolar energy
p3371
I1
sVthe gulf
p3372
I1
sVof love
p3373
I1
sVwas nothing
p3374
I1
sVa mistake
p3375
I1
sVa priority
p3376
I1
sVit done
p3377
I5
sVsome issues
p3378
I1
sVformer self
p3379
I2
sVthe year
p3380
I1
sVnew wars
p3381
I1
sVincredible leadership
p3382
I1
sVpass it
p3383
I2
sVthe airport
p3384
I1
sVbeen opened
p3385
I1
sVexpensive care
p3386
I1
sVfree market
p3387
I1
sVto learn
p3388
I2
sVof money
p3389
I5
sVeconomic plan
p3390
I4
sVare good
p3391
I1
sVthe recession
p3392
I3
sVteach you
p3393
I1
sVin maryland
p3394
I1
sVand quit
p3395
I1
sVup everything
p3396
I1
sVeducated workforce
p3397
I1
sVhave one
p3398
I1
sVfrom memory
p3399
I1
sVunited nations
p3400
I1
sVfor me
p3401
I2
sVwill collapse
p3402
I2
sVa country
p3403
I1
sVyoung adults
p3404
I1
sVa neighborhood
p3405
I1
sVamendment rights
p3406
I1
sVthe story
p3407
I1
sVare heard
p3408
I2
sVwe are
p3409
I6
sVbreaking us
p3410
I1
sVforeign oil
p3411
I6
sVget insurance
p3412
I1
sVfix it
p3413
I4
sVvery seriously
p3414
I1
sVback hey
p3415
I1
sVour job
p3416
I1
sVterrorist organization
p3417
I1
sVbelieve that
p3418
I5
sVcoming forward
p3419
I1
sVunit citation
p3420
I1
sVt stupid
p3421
I1
sVdebate team
p3422
I1
sVmust lead
p3423
I1
sVand manufacturing
p3424
I1
sVrepublicans support
p3425
I1
sVnot delay
p3426
I1
sVcounterparts internationally
p3427
I1
sVinvolves infrastructure
p3428
I1
sVcomes in
p3429
I1
sVyou want
p3430
I1
sVother guy
p3431
I1
sVnext semester
p3432
I1
sVfor breath
p3433
I1
sVwe strive
p3434
I1
sVcommon sense
p3435
I6
sVve become
p3436
I1
sVindividual africans
p3437
I1
sVon churches
p3438
I1
sVthese cuts
p3439
I1
sVgabby giffords
p3440
I1
sVof easter
p3441
I1
sVs exchange
p3442
I1
sVribbon cuttings
p3443
I1
sVto bear
p3444
I1
sVjason collins
p3445
I1
sVon chance
p3446
I1
sVwas stopped
p3447
I1
sVcame up
p3448
I1
sVpaying attention
p3449
I1
sVthe state
p3450
I2
sVand gone
p3451
I1
sVour engagement
p3452
I1
sVdone here
p3453
I2
sVthe italians
p3454
I1
sVrundown neighborhoods
p3455
I1
sVthose careers
p3456
I1
sVown pocket
p3457
I1
sVboston globe
p3458
I1
sVgood father
p3459
I1
sVobama oh
p3460
I1
sVto criminals
p3461
I2
sVare needed
p3462
I1
sVand communism
p3463
I1
sVwith respect
p3464
I1
sVcarbon emissions
p3465
I1
sVbusiness here
p3466
I2
sVchange careers
p3467
I1
sVcame in
p3468
I1
sVwe deliver
p3469
I1
sVremained unmet
p3470
I1
sVyour secret
p3471
I1
sVmoney followed
p3472
I1
sVfund them
p3473
I1
sVlet up
p3474
I1
sVmilitary options
p3475
I1
sVcongratulations elrina
p3476
I1
sVfinance college
p3477
I1
sVre here
p3478
I2
sVcare options
p3479
I1
sVwith security
p3480
I1
sVsome cases
p3481
I1
sVs day
p3482
I3
sVgood start
p3483
I2
sVour constitution
p3484
I1
sVfor reform
p3485
I1
sVadministrative action
p3486
I1
sVprivate insurance
p3487
I1
sVmiss something
p3488
I1
sVhousing sector
p3489
I1
sVthis world
p3490
I2
sVof country
p3491
I1
sVis booming
p3492
I1
sVwithout fear
p3493
I1
sVthat matters
p3494
I1
sVrecent events
p3495
I1
sVneeded there
p3496
I1
sVvery much
p3497
I12
sVas sacred
p3498
I1
sVthat balance
p3499
I1
sVlabor movement
p3500
I1
sVbe vigilant
p3501
I1
sVnot smart
p3502
I4
sVand applauded
p3503
I1
sVfully recover
p3504
I2
sVin arizona
p3505
I1
sVunderstand this
p3506
I1
sVsteny hoyer
p3507
I1
sVhas deteriorated
p3508
I1
sV50 states
p3509
I1
sVtax breaks
p3510
I1
sVyou bet
p3511
I1
sVtakes time
p3512
I1
sVin life
p3513
I2
sVdo something
p3514
I1
sVsimple vote
p3515
I1
sVyou lordy
p3516
I1
sVthese neighborhoods
p3517
I1
sVnow here
p3518
I1
sVtime ago
p3519
I1
sVin mali
p3520
I1
sVis eliminated
p3521
I1
sVin trouble
p3522
I2
sVfrom college
p3523
I1
sVyour grandchildren
p3524
I1
sVgetting respect
p3525
I1
sVjustice everywhere
p3526
I1
sVtraditional way
p3527
I1
sVour approach
p3528
I1
sVmass graves
p3529
I1
sVthese decisions
p3530
I1
sVis looking
p3531
I1
sVpay it
p3532
I1
sVrandom shooting
p3533
I3
sVbeen examined
p3534
I1
sVyes republicans
p3535
I1
sVthis close
p3536
I1
sVdiscriminating consumers
p3537
I1
sVpush on
p3538
I1
sVoutposts abroad
p3539
I1
sVin battle
p3540
I1
sVfour months
p3541
I1
sVre driving
p3542
I1
sVmuslim world
p3543
I1
sVpercent lower
p3544
I2
sVprotect themselves
p3545
I1
sVloan debt
p3546
I1
sVcan t
p3547
I1
sVclass security
p3548
I3
sVconfront resistance
p3549
I1
sVonly natural
p3550
I1
sVthis summer
p3551
I1
sVand technology
p3552
I1
sVenforcement alone
p3553
I1
sVmore fierce
p3554
I1
sVall egyptians
p3555
I1
sVfrom harm
p3556
I2
sVof terror
p3557
I3
sVwill happen
p3558
I1
sV60 years
p3559
I3
sVgood investment
p3560
I1
sVour deficit
p3561
I4
sVfew explodes
p3562
I1
sVwill cost
p3563
I1
sVknow me
p3564
I1
sVthe ship
p3565
I1
sVviolent criminals
p3566
I1
sVtell stories
p3567
I1
sVyour own
p3568
I3
sVbless america
p3569
I6
sVthe move
p3570
I1
sVmoving world
p3571
I1
sVan upset
p3572
I1
sVyou do
p3573
I9
sVdark side
p3574
I1
sVtraffic jams
p3575
I1
sVre okay
p3576
I1
sVlethal action
p3577
I1
sVwe pause
p3578
I1
sVmade of
p3579
I1
sVcleveland clinic
p3580
I2
sVand dates
p3581
I1
sVhas suffered
p3582
I1
sVt changed
p3583
I1
sVnational discourse
p3584
I1
sVgreat progress
p3585
I1
sVhospitable planet
p3586
I1
sVnavy yard
p3587
I1
sVat me
p3588
I2
sVin front
p3589
I1
sVlaw fail
p3590
I1
sVnew century
p3591
I2
sVpower bills
p3592
I1
sVbe too
p3593
I2
sVbid contracts
p3594
I1
sVmain street
p3595
I1
sVhis inauguration
p3596
I1
sVassad accountable
p3597
I1
sVsome here
p3598
I1
sVsoul searching
p3599
I1
sVfeel good
p3600
I1
sVwas shaken
p3601
I1
sVthe morning
p3602
I4
sVother one
p3603
I1
sVare effective
p3604
I1
sVthe 90s
p3605
I1
sVin benghazi
p3606
I1
sVwe love
p3607
I3
sVcelebrate it
p3608
I1
sVs shoes
p3609
I2
sVin prison
p3610
I2
sVrolled back
p3611
I1
sVour friends
p3612
I1
sVis true
p3613
I3
sVt wait
p3614
I1
sVthis trend
p3615
I1
sVwere unimpressed
p3616
I1
sVstriving immigrants
p3617
I1
sVliving wage
p3618
I1
sVall workers
p3619
I1
sVon medicare
p3620
I2
sVgenerated batteries
p3621
I1
sVimport bank
p3622
I1
sVsell something
p3623
I1
sVfreedom abroad
p3624
I1
sVtheir part
p3625
I2
sVsome hope
p3626
I1
sVmake mistakes
p3627
I1
sV10 years
p3628
I2
sVlasting peace
p3629
I3
sVnot provided
p3630
I1
sVgot married
p3631
I1
sVbig parts
p3632
I1
sVwonderful people
p3633
I1
sVor easily
p3634
I1
sVair act
p3635
I1
sVs okay
p3636
I2
sVclass citizens
p3637
I1
sVwest back
p3638
I1
sVat jaxport
p3639
I1
sVs guaranteed
p3640
I1
sVhello berlin
p3641
I1
sVsee him
p3642
I1
sVpaid off
p3643
I1
sVso rapidly
p3644
I1
sVbe home
p3645
I1
sVs course
p3646
I1
sVhigh school
p3647
I1
sVliberal fantasy
p3648
I1
sVa champ
p3649
I1
sVabout it
p3650
I12
sVof history
p3651
I2
sVlead it
p3652
I1
sVto accomplish
p3653
I1
sVown land
p3654
I3
sVprevious generations
p3655
I1
sVnot forgetting
p3656
I1
sVcommunities legally
p3657
I1
sVmuch debt
p3658
I1
sVthese investments
p3659
I1
sVdave clark
p3660
I1
sVand underwater
p3661
I1
sVsecurity forces
p3662
I2
sVcould talk
p3663
I1
sVthe polish
p3664
I1
sVyour partner
p3665
I1
sVterrible floods
p3666
I1
sVgreat example
p3667
I1
sVhis career
p3668
I1
sVevery american
p3669
I3
sVthis land
p3670
I1
sVthere either
p3671
I1
sVbouncing back
p3672
I2
sVdo them
p3673
I1
sVits women
p3674
I1
sVdeal done
p3675
I1
sVsisters keepers
p3676
I1
sVenforcement officers
p3677
I1
sVcongratulations
p3678
I1
sVmilitary action
p3679
I2
sVher story
p3680
I1
sVcome back
p3681
I1
sVto war
p3682
I3
sVmilitary edge
p3683
I1
sVof coal
p3684
I1
sVthe restaurant
p3685
I1
sVtucson
p3686
I1
sVbe overcome
p3687
I2
sVleft office
p3688
I1
sVthe case
p3689
I5
sVso good
p3690
I1
sVworld stage
p3691
I1
sVthis further
p3692
I1
sVto ellicott
p3693
I1
sVfor africans
p3694
I1
sVour air
p3695
I1
sVhousing affordable
p3696
I1
sVproducing energy
p3697
I1
sVour aim
p3698
I1
sVcapital investment
p3699
I1
sVthe idea
p3700
I1
sVbreeds injustice
p3701
I1
sVa house
p3702
I1
sVto hope
p3703
I1
sVsouth africa
p3704
I5
sVstronger economy
p3705
I1
sVcomputer science
p3706
I2
sVfinancial aid
p3707
I1
sVhire you
p3708
I1
sVgrowing economies
p3709
I1
sVs like
p3710
I1
sVany coverage
p3711
I1
sVwith islam
p3712
I2
sVhave made
p3713
I1
sVyou nikita
p3714
I1
sVand straight
p3715
I1
sVthose videos
p3716
I1
sVto consider
p3717
I1
sVour loss
p3718
I1
sVstay focused
p3719
I1
sVinsurance companies
p3720
I2
sVbe yet
p3721
I1
sVthese realities
p3722
I1
sVa bind
p3723
I1
sVincredible hospitality
p3724
I1
sVin brooklyn
p3725
I1
sVeven genocide
p3726
I1
sVpasses by
p3727
I1
sVbe harmed
p3728
I1
sVand scope
p3729
I1
sVto europe
p3730
I1
sVcare act
p3731
I7
sVand promise
p3732
I1
sVnew threats
p3733
I1
sVbe seated
p3734
I4
sVhunger strike
p3735
I2
sVwith it
p3736
I7
sVa problem
p3737
I3
sVs rates
p3738
I2
sVbe maintained
p3739
I1
sVthis done
p3740
I10
sVinterior ministry
p3741
I1
sVcaused inconvenience
p3742
I1
sVpolitical games
p3743
I1
sVsexy now
p3744
I1
sVhank johnson
p3745
I1
sVus stronger
p3746
I1
sVchairs there
p3747
I1
sVgood example
p3748
I1
sVpower grids
p3749
I1
sVor walked
p3750
I1
sVanother one
p3751
I1
sVadequately supported
p3752
I1
sVthe field
p3753
I1
sVthis attack
p3754
I1
sVfor congress
p3755
I1
sVand africa
p3756
I2
sVget distracted
p3757
I1
sVwest texas
p3758
I1
sVhuman spirit
p3759
I1
sVs leadership
p3760
I2
sVcut it
p3761
I1
sVhis wife
p3762
I1
sVits people
p3763
I3
sVeconomy demands
p3764
I1
sVon sunday
p3765
I1
sVworthy goal
p3766
I2
sVcum laude
p3767
I1
sVour actions
p3768
I1
sVgood evening
p3769
I1
sVamerican workers
p3770
I2
sVdid happen
p3771
I1
sVvery top
p3772
I1
sVfeels familiar
p3773
I1
sVyou well
p3774
I1
sVand free
p3775
I1
sVthe bottle
p3776
I1
sVlouis arch
p3777
I1
sVto come
p3778
I14
sVmany americans
p3779
I1
sVhis lifetime
p3780
I1
sVneeded that
p3781
I1
sVlikes chanting
p3782
I1
sVwounded warriors
p3783
I1
sVmessed with
p3784
I2
sVlast point
p3785
I1
sVsemper fidelis
p3786
I1
sVshould operate
p3787
I1
sVsomeplace else
p3788
I6
sVnorth star
p3789
I1
sVtrillion dollars
p3790
I3
sVbrokering peace
p3791
I1
sVto fail
p3792
I1
sVpakistani people
p3793
I1
sVthe march
p3794
I1
sVlooking for
p3795
I2
sVof rules
p3796
I1
sVof 2013
p3797
I1
sVup boss
p3798
I1
sVwrong place
p3799
I1
sVhave it
p3800
I2
sVforecasts materialize
p3801
I1
sVare renewed
p3802
I1
sVyoungstown ohio
p3803
I1
sVand rockets
p3804
I1
sVbad reasons
p3805
I1
sVevery terrorist
p3806
I1
sVthere overnight
p3807
I1
sVcalled vets4vets
p3808
I1
sVlegal system
p3809
I1
sVcarry on
p3810
I2
sVworld faces
p3811
I1
sVdid nothing
p3812
I1
sVs authority
p3813
I1
sVinsurance mandates
p3814
I1
sVof down
p3815
I1
sVpresident congratulations
p3816
I1
sVa vote
p3817
I19
sVa war
p3818
I1
sVcovered too
p3819
I1
sVthe pavement
p3820
I1
sVhard work
p3821
I3
sVour creed
p3822
I1
sVgrown weaker
p3823
I1
sVscience class
p3824
I1
sVthe torah
p3825
I1
sVpolitical careers
p3826
I1
sVthem on
p3827
I1
sVa reality
p3828
I1
sVa disability
p3829
I1
sVsome redemption
p3830
I1
sVin cincinnati
p3831
I1
sVeverybody
p3832
I1
sVthe other
p3833
I2
sVto enjoy
p3834
I1
sVauto industry
p3835
I4
sVwas diverted
p3836
I1
sVyear before
p3837
I1
sVto exist
p3838
I2
sVimportant date
p3839
I1
sVand grandchildren
p3840
I1
sVtrue today
p3841
I1
sVdone right
p3842
I2
sVjobs require
p3843
I1
sVare true
p3844
I1
sVa fact
p3845
I1
sVbe listening
p3846
I1
sVwould think
p3847
I1
sVto washington
p3848
I1
sVstill uncertain
p3849
I1
sVwork hard
p3850
I2
sVaround here
p3851
I1
sVpreexisting condition
p3852
I4
sVinvites tragedy
p3853
I1
sVof possibility
p3854
I1
sVindividual homeowners
p3855
I1
sVeven harder
p3856
I1
sVnever before
p3857
I1
sVsingle american
p3858
I1
sVwe speak
p3859
I1
sVi received
p3860
I1
sVgreat city
p3861
I1
sVin europe
p3862
I1
sVthe afghans
p3863
I1
sVour lord
p3864
I1
sVmark kelly
p3865
I1
sV9 11
p3866
I5
sVgets flooded
p3867
I1
sVwonderful haircuts
p3868
I1
sVby immigrants
p3869
I1
sVof washington
p3870
I2
sVafghan forces
p3871
I2
sVmade progress
p3872
I3
sVfor politics
p3873
I2
sVsome problems
p3874
I1
sVautomated machining
p3875
I1
sVis possible
p3876
I3
sVthings together
p3877
I1
sVa marine
p3878
I1
sVa city
p3879
I1
sVbegin today
p3880
I1
sVlike soweto
p3881
I1
sVyour service
p3882
I1
sVus exceptional
p3883
I1
sVhad vanished
p3884
I1
sVand universities
p3885
I1
sVheard before
p3886
I1
sVincredibly lucky
p3887
I1
sVyou directly
p3888
I1
sVright here
p3889
I9
sVto yours
p3890
I1
sVwith israel
p3891
I1
sVbuy it
p3892
I1
sVbay closed
p3893
I1
sg2723
I1
sVfalse choice
p3894
I1
sVcare system
p3895
I6
sVabout peace
p3896
I1
sVs down
p3897
I1
sVour democracy
p3898
I8
sVdoing it
p3899
I3
sVyour leaders
p3900
I1
sVthe thing
p3901
I1
sVeast africa
p3902
I1
sVright thing
p3903
I4
sVus vibrant
p3904
I1
sVah enough
p3905
I1
sVcompanies represent
p3906
I1
sVterm deficits
p3907
I1
sVforward together
p3908
I1
sVfrom gtmo
p3909
I1
sVa check
p3910
I2
sVabout this
p3911
I2
sVfor others
p3912
I2
sVthe leader
p3913
I1
sVnuclear postures
p3914
I1
sVgive up
p3915
I1
sVgrow food
p3916
I1
sVabout jobs
p3917
I2
sVthe population
p3918
I1
sVwildly unpopular
p3919
I1
sVhuman beings
p3920
I1
sVthe committee
p3921
I1
sVjust peace
p3922
I1
sVcosts down
p3923
I2
sVyou go
p3924
I1
sVfor ourselves
p3925
I1
sVme humble
p3926
I1
sVthe terminals
p3927
I1
sVobama yup
p3928
I1
sVof change
p3929
I1
sVfor action
p3930
I2
sVin bloom
p3931
I1
sVbe over
p3932
I4
sVnorth africa
p3933
I4
sVthem anymore
p3934
I1
sVa veteran
p3935
I2
sVrenewable energy
p3936
I1
sVnot perfect
p3937
I1
sVour competitors
p3938
I2
sVthe fha
p3939
I1
sVbeen made
p3940
I3
sVmedicare benefits
p3941
I1
sVfear prevails
p3942
I1
sVchristi parsons
p3943
I1
sVtake action
p3944
I2
sVchanged forever
p3945
I2
sVair force
p3946
I1
sVthe one
p3947
I1
sVhello midshipmen
p3948
I1
sVfor liberty
p3949
I1
sVpursue it
p3950
I1
sVon us
p3951
I2
sVcompanies honest
p3952
I1
sVto lose
p3953
I1
sVare continuing
p3954
I1
sVstate sovereignty
p3955
I1
sVsome statistic
p3956
I1
sVfor florida
p3957
I2
sVfuture growth
p3958
I1
sVhunker down
p3959
I1
sVthe marginalized
p3960
I1
sVactually done
p3961
I1
sVlong haul
p3962
I2
sVgood law
p3963
I1
sVget addressed
p3964
I1
sVafl cio
p3965
I1
sVenforcing them
p3966
I1
sVsmart decisions
p3967
I1
sVsingle day
p3968
I17
sVnatural resources
p3969
I1
sVanything away
p3970
I1
sVthe wounded
p3971
I2
sVvery often
p3972
I1
sVbroader fix
p3973
I1
sVchanging climate
p3974
I2
sVpeaceful protest
p3975
I1
sVa tragedy
p3976
I1
sVchicago illinois
p3977
I1
sVhousing bubble
p3978
I1
sVfew minutes
p3979
I1
sVthat is
p3980
I1
sVthe effort
p3981
I1
sVin chief
p3982
I1
sVone path
p3983
I1
sVmyrna labarre
p3984
I2
sVbe productive
p3985
I1
sVnow over
p3986
I2
sVpeople expect
p3987
I1
sV18 months
p3988
I1
sVand welfare
p3989
I1
sVafrican efforts
p3990
I1
sVto prosperity
p3991
I1
sVeven better
p3992
I2
sVsend help
p3993
I1
sVa month
p3994
I2
sVmove again
p3995
I1
sVits strongholds
p3996
I1
sVmy administration
p3997
I1
sVdo that
p3998
I7
sVbeen hammered
p3999
I1
sVthe community
p4000
I3
sVof medford
p4001
I1
sVmaybe not
p4002
I1
sVthe rest
p4003
I1
sVwe face
p4004
I1
sVwe did
p4005
I2
sVtheir careers
p4006
I1
sVmajor recession
p4007
I1
sVa nation
p4008
I3
sVour values
p4009
I1
sVnot easy
p4010
I1
sVmight alone
p4011
I1
sVwere sound
p4012
I1
sVbefore us
p4013
I4
sVyour trust
p4014
I1
sVour community
p4015
I1
sVnow complete
p4016
I1
sVour water
p4017
I1
sVamerican family
p4018
I4
sVyou doing
p4019
I1
sVchairman spot
p4020
I1
sVs money
p4021
I2
sVor not
p4022
I4
sVon watch
p4023
I1
sVmitch mcconnell
p4024
I1
sVo malley
p4025
I1
sVmandate further
p4026
I1
sVeager partner
p4027
I1
sVthree years
p4028
I4
sVour calling
p4029
I1
sVheld accountable
p4030
I3
sVfor cancer
p4031
I1
sVmake progress
p4032
I1
sVbill does
p4033
I1
sVmonetary policymaker
p4034
I1
sVbetter history
p4035
I2
sVthe rush
p4036
I2
sVgreat nations
p4037
I1
sVbeen stronger
p4038
I1
sVresisting implementation
p4039
I1
sVchemical warfare
p4040
I1
sVhello boston
p4041
I1
sVsing songs
p4042
I1
sVand improve
p4043
I1
sVcorporate secrets
p4044
I1
sVdomestic violence
p4045
I1
sVmaking progress
p4046
I1
sVyour citizens
p4047
I1
sVdisenfranchise others
p4048
I1
sVthe better
p4049
I1
sVof facts
p4050
I1
sVof energy
p4051
I3
sVyou otherwise
p4052
I1
sVglass dome
p4053
I1
sVa child
p4054
I1
sVwhat happened
p4055
I1
sVmodern world
p4056
I1
sVof opportunity
p4057
I1
sVafford college
p4058
I3
sVof us
p4059
I4
sVcivilian job
p4060
I1
sVof up
p4061
I1
sValways smiling
p4062
I1
sVus different
p4063
I1
sVand inclusive
p4064
I1
sVstand up
p4065
I5
sVrules obsolete
p4066
I1
sVhe wanted
p4067
I1
sVof folks
p4068
I1
sVmore effective
p4069
I3
sVmy dreams
p4070
I1
sVnext project
p4071
I1
sVyour principal
p4072
I1
sVlike yeah
p4073
I1
sVrandomly shot
p4074
I1
sVinternational obligations
p4075
I1
sVin kenya
p4076
I1
sVin vain
p4077
I1
sVmy grandparents
p4078
I1
sVpoll numbers
p4079
I1
sVtheir units
p4080
I1
sVmore contentious
p4081
I1
sVmost short
p4082
I1
sVnot statistics
p4083
I1
sVbarbed wire
p4084
I1
sVtheir students
p4085
I1
sVmove forward
p4086
I1
sVtake root
p4087
I1
sVdollar bonuses
p4088
I1
sVcommon values
p4089
I1
sVsmall shareholders
p4090
I1
sVwithin afghanistan
p4091
I1
sVprofits again
p4092
I1
sVeconomic reform
p4093
I1
sVeverybody succeeds
p4094
I1
sVour commitments
p4095
I1
sVtowards disarmament
p4096
I1
sVthis war
p4097
I1
sVof employees
p4098
I1
sVpell grants
p4099
I1
sVout politics
p4100
I1
sVbeen different
p4101
I1
sVwork worse
p4102
I1
sVtoda raba
p4103
I1
sVs winds
p4104
I1
sVbe real
p4105
I1
sVopposition forces
p4106
I1
sVviable palestine
p4107
I1
sVhelp that
p4108
I1
sVkids had
p4109
I1
sVin chains
p4110
I1
sVour partners
p4111
I1
sVa motorcade
p4112
I1
sVdays left
p4113
I1
sVm teasing
p4114
I1
sVamong nations
p4115
I1
sVand brown
p4116
I1
sVjust some
p4117
I3
sVbusiness community
p4118
I1
sVshould act
p4119
I1
sVconstituents want
p4120
I1
sVhey chicago
p4121
I1
sVthat security
p4122
I2
sVus harm
p4123
I1
sVgun too
p4124
I1
sVs diego
p4125
I1
sVme too
p4126
I1
sVyour time
p4127
I1
sVhere anyway
p4128
I1
sVmuslim populations
p4129
I1
sVi suppose
p4130
I1
sVthis tragedy
p4131
I3
sVtrillions there
p4132
I1
sVisraeli conflict
p4133
I1
sVdeal too
p4134
I1
sVlove you
p4135
I4
sVeverybody here
p4136
I1
sVll succeed
p4137
I1
sVof mine
p4138
I3
sVto oppression
p4139
I1
sVare profitable
p4140
I1
sVand wide
p4141
I1
sVscientific research
p4142
I1
sVegyptian relationship
p4143
I1
sVfear vanish
p4144
I1
sVtribal lines
p4145
I1
sVsouth side
p4146
I1
sVvielen dank
p4147
I1
sVof americans
p4148
I7
sVlead marines
p4149
I1
sVthis winter
p4150
I1
sVof tuition
p4151
I1
sVfor it
p4152
I12
sVby laws
p4153
I1
sVto act
p4154
I5
sVbeen brought
p4155
I1
sVto stabilize
p4156
I1
sVenrollment period
p4157
I1
sVso grateful
p4158
I1
sVs impressive
p4159
I1
sVimplement this
p4160
I1
sVnot arrive
p4161
I1
sVabout bricklayers
p4162
I1
sVis healing
p4163
I1
sVbe unafraid
p4164
I2
sVto violence
p4165
I1
sVs important
p4166
I3
sVso sensitive
p4167
I1
sVwe grieve
p4168
I1
sVthat truth
p4169
I1
sVour commitment
p4170
I1
sVnever know
p4171
I1
sVpeople live
p4172
I1
sVis hard
p4173
I1
sVand afghanistan
p4174
I1
sVbless israel
p4175
I1
sVyour profits
p4176
I1
sVabout here
p4177
I1
sVan endorsement
p4178
I1
sVthis progress
p4179
I1
sVhold dear
p4180
I1
sVrate mortgage
p4181
I1
sVis time
p4182
I1
sVson robert
p4183
I1
sVfrom afghanistan
p4184
I4
sVjob better
p4185
I1
sVdoes too
p4186
I1
sVway there
p4187
I1
sVsector hiring
p4188
I1
sVman really
p4189
I1
sVbetter results
p4190
I1
sVbe lost
p4191
I1
sVhello galesburg
p4192
I1
sVeconomic opportunity
p4193
I1
sVbe patient
p4194
I1
sVrequire you
p4195
I1
sVits stockpiles
p4196
I1
sVs tricks
p4197
I1
sVcorps teams
p4198
I1
sVbeing denied
p4199
I1
sVwas broken
p4200
I1
sVpartnerships work
p4201
I1
sVcertain issues
p4202
I1
sVyour home
p4203
I2
sVperennial violence
p4204
I1
sVnot words
p4205
I1
sVplan properly
p4206
I1
sVdouble it
p4207
I1
sVaudience good
p4208
I2
sVmore competitive
p4209
I2
sVamerica changed
p4210
I1
sVnew normal
p4211
I1
sVvery encouraging
p4212
I1
sVsomehow passed
p4213
I1
sVstoried chain
p4214
I1
sVndaa
p4215
I1
sVrecognize that
p4216
I2
sVgained momentum
p4217
I1
sVat morehouse
p4218
I2
sVjust charity
p4219
I1
sVmade there
p4220
I1
sVmore elusive
p4221
I1
sVlooks like
p4222
I2
sVin afghanistan
p4223
I4
sVpeace
p4224
I1
sVhello phoenix
p4225
I1
sVand families
p4226
I1
sVdo it
p4227
I16
sVgo up
p4228
I2
sVamerican issue
p4229
I1
sVrepay it
p4230
I1
sVmore money
p4231
I3
sVof justice
p4232
I1
sVin denver
p4233
I1
sVchanging jobs
p4234
I1
sVmoney anyway
p4235
I1
sVand businesses
p4236
I1
sVhard times
p4237
I1
sVme finish
p4238
I1
sVcoming back
p4239
I2
sVas one
p4240
I1
sVother nations
p4241
I2
sVbeing killed
p4242
I1
sVfederal aid
p4243
I1
sVher hand
p4244
I1
sVwelcome back
p4245
I1
sVour traditions
p4246
I1
sVfaced racism
p4247
I1
sVspecific goals
p4248
I1
sVto him
p4249
I1
sVi can
p4250
I1
sVor boston
p4251
I1
sVmore banks
p4252
I1
sVfind peace
p4253
I1
sVand character
p4254
I1
sVterrorist attacks
p4255
I1
sVthem first
p4256
I1
sVnuclear war
p4257
I1
sVyour position
p4258
I1
sVworld economy
p4259
I1
sVas charity
p4260
I1
sVheart aches
p4261
I1
sVafrican community
p4262
I1
sVliberate it
p4263
I1
sVa mortgage
p4264
I1
sVtwo thirds
p4265
I1
sVof ways
p4266
I1
sVto rebuild
p4267
I2
sVthe kill
p4268
I1
sVthat done
p4269
I5
sVlose them
p4270
I1
sVbusinesses abroad
p4271
I1
sVhuman tragedy
p4272
I2
sVre building
p4273
I1
sVis watching
p4274
I1
sVthan yourself
p4275
I1
sVsaid why
p4276
I1
sVa vacuum
p4277
I2
sVthat country
p4278
I1
sVowning one
p4279
I1
sVtragic situation
p4280
I1
sVfrom taxpayers
p4281
I1
sVripple effect
p4282
I1
sVtheir children
p4283
I2
sVat manor
p4284
I1
sVdifficult times
p4285
I1
sVto heal
p4286
I2
sVunsustainable debt
p4287
I2
sVre doing
p4288
I2
sVs history
p4289
I1
sVmore institutes
p4290
I1
sVcitizenship is
p4291
I2
sVrepeated here
p4292
I1
sVs jeff
p4293
I1
sVtheir capacity
p4294
I1
sVbroader front
p4295
I1
sVhealthcare gov
p4296
I1
sVfind you
p4297
I1
sVthose letters
p4298
I2
sVme sir
p4299
I1
sVwith justice
p4300
I1
sVhappen again
p4301
I2
sVmean something
p4302
I1
sVfutures here
p4303
I1
sVact does
p4304
I2
sVevery problem
p4305
I1
sVas us
p4306
I1
sVlifetime building
p4307
I1
sVarne duncan
p4308
I1
sVevery life
p4309
I1
sVespecially acknowledge
p4310
I1
sVa gun
p4311
I9
sVamericans expect
p4312
I1
sVbe there
p4313
I1
sVtsuyoshi yoshida
p4314
I1
sVtheir husbands
p4315
I1
sVhere illegally
p4316
I1
sVmiss somebody
p4317
I1
sVof isolation
p4318
I1
sVto stall
p4319
I1
sVthan this
p4320
I2
sVthis shutdown
p4321
I1
sVworld war
p4322
I2
sVdownstate illinois
p4323
I1
sVof pakistan
p4324
I1
sVrepeat that
p4325
I1
sVfund it
p4326
I1
sVt enough
p4327
I1
sVbiggest impact
p4328
I1
sVii world
p4329
I1
sVthe midwest
p4330
I1
sVtoo long
p4331
I3
sVpaying taxes
p4332
I1
sVback up
p4333
I1
sVour lifetime
p4334
I2
sVlasting birthright
p4335
I1
sVoutstanding work
p4336
I2
sVtheir confinement
p4337
I1
sVknow what
p4338
I2
sVfrom mexico
p4339
I2
sVmore students
p4340
I1
sVgreat experience
p4341
I1
sV5 percent
p4342
I1
sVtheir stories
p4343
I1
sVincredible honor
p4344
I1
sVinto submission
p4345
I1
sVof course
p4346
I1
sVa welcome
p4347
I1
sVit down
p4348
I1
sVarmed services
p4349
I1
sVto offer
p4350
I2
sVnot true
p4351
I1
sVmorehouse man
p4352
I1
sVterm trends
p4353
I1
sVthat bill
p4354
I2
sVtop lieutenants
p4355
I1
sVwhite house
p4356
I8
sVby august
p4357
I2
sVbeen happening
p4358
I1
sVto work
p4359
I12
sVfinished yet
p4360
I1
sVgoing anywhere
p4361
I2
sVfamilies deserve
p4362
I2
sVno choice
p4363
I1
sVthat order
p4364
I1
sVmultiple continents
p4365
I1
sVyou georgetown
p4366
I1
sVactually fallen
p4367
I1
sVfrom bankruptcy
p4368
I1
sVnext weekend
p4369
I1
sVbroader point
p4370
I1
sVmore secure
p4371
I4
sVand hospitals
p4372
I1
sVnew age
p4373
I2
sVget involved
p4374
I1
sVentire country
p4375
I2
sVlater dropped
p4376
I1
sVwas on
p4377
I1
sVjulianna
p4378
I2
sVnext aurora
p4379
I1
sVstate university
p4380
I1
sVlongstanding relationship
p4381
I1
sVto fall
p4382
I1
sVgun ownership
p4383
I1
sVafter that
p4384
I2
sVprivate market
p4385
I1
sVdifficult time
p4386
I1
sVfred hochberg
p4387
I2
sVhe wants
p4388
I1
sVbe lasting
p4389
I1
sVto stop
p4390
I5
sVwork together
p4391
I5
sVand under
p4392
I1
sVthe fed
p4393
I1
sVsays hi
p4394
I1
sVhalf years
p4395
I1
sVwith you
p4396
I14
sVevery wrong
p4397
I1
sVall forgotten
p4398
I1
sVsomething wrong
p4399
I1
sVin ohio
p4400
I2
sVpretty proud
p4401
I1
sVbless you
p4402
I17
sVprovide credit
p4403
I1
sVwent away
p4404
I1
sVthe table
p4405
I1
sVthis moment
p4406
I1
sVdangerous weapons
p4407
I2
sVgood cause
p4408
I1
sVwith africa
p4409
I1
sVengaged citizenship
p4410
I1
sVexpect here
p4411
I1
sVup with
p4412
I1
sVdiplomatic resolution
p4413
I1
sVtheir country
p4414
I1
sVcost jobs
p4415
I1
sVtheir future
p4416
I1
sVentails sacrifice
p4417
I1
sVbe complete
p4418
I1
sVa triple
p4419
I1
sVcare passed
p4420
I1
sVassembled outside
p4421
I1
sVabout education
p4422
I1
sVlord forever
p4423
I1
sV40 months
p4424
I1
sVgreat promise
p4425
I1
sVto solve
p4426
I1
sVtalked about
p4427
I1
sVbeen practicing
p4428
I1
sVsome time
p4429
I3
sVone people
p4430
I1
sVpolitical spectrum
p4431
I2
sVevery person
p4432
I1
sVissues generally
p4433
I1
sVmilitary strike
p4434
I1
sVa neighbor
p4435
I1
sVor budgets
p4436
I1
sVthose issues
p4437
I2
sVright away
p4438
I4
sVcountry knew
p4439
I1
sVand expand
p4440
I1
sVby god
p4441
I1
sVto say
p4442
I1
sVto progress
p4443
I1
sVsit down
p4444
I1
sVset up
p4445
I2
sVhi to
p4446
I1
sVas good
p4447
I1
sVzero
p4448
I1
sVa trend
p4449
I1
sVto serve
p4450
I1
sVreturn home
p4451
I1
sVbe true
p4452
I1
sVof immigration
p4453
I1
sVfor africa
p4454
I1
sVyour dreams
p4455
I1
sVand education
p4456
I1
sVin morehouse
p4457
I1
sVright now
p4458
I23
sVrich trumka
p4459
I1
sVacknowledge here
p4460
I1
sVmy reality
p4461
I1
sVabout housing
p4462
I1
sVand invest
p4463
I1
sVown home
p4464
I3
sVwithin nations
p4465
I2
sVa border
p4466
I1
sVtoo deep
p4467
I1
sVhard questions
p4468
I1
sVlot about
p4469
I1
sVthe deficit
p4470
I1
sVyou study
p4471
I1
sVhas sponsored
p4472
I1
sVsouth carolina
p4473
I4
sVenduring ideals
p4474
I1
sVshe said
p4475
I2
sVstill play
p4476
I1
sVgreat work
p4477
I2
sVdrug cartels
p4478
I1
sVbe accountable
p4479
I1
sVevidence leads
p4480
I1
sVin education
p4481
I1
sVs soil
p4482
I1
sVof medicare
p4483
I1
sVit different
p4484
I1
sVand true
p4485
I1
sVfull stop
p4486
I1
sVbig stuff
p4487
I1
sV5 2
p4488
I1
sVprevent layoffs
p4489
I1
sVjoke coming
p4490
I1
sVtheir responsibilities
p4491
I1
sVtheir own
p4492
I5
sVyour paycheck
p4493
I1
sVmy business
p4494
I1
sVdelivery system
p4495
I1
sVwith me
p4496
I3
sVstart with
p4497
I1
sVve made
p4498
I2
sVthat happen
p4499
I5
sVdefine us
p4500
I2
sVbe killed
p4501
I1
sVo l
p4502
I1
sVstronger storms
p4503
I1
sVall love
p4504
I1
sVbe wiser
p4505
I1
sVvolatile region
p4506
I1
sVtakes trade
p4507
I1
sVthe territory
p4508
I1
sVget wet
p4509
I1
sVstill tough
p4510
I2
sVcompetitive disadvantage
p4511
I2
sVnational television
p4512
I1
sVstylish eyeglasses
p4513
I1
sVstrong partnerships
p4514
I1
sVyears old
p4515
I7
sVa decision
p4516
I1
sVwill do
p4517
I1
sVoff investors
p4518
I1
sVin half
p4519
I1
sVwithout cohesion
p4520
I1
sVfight it
p4521
I1
sVand grow
p4522
I2
sVand exploration
p4523
I1
sV40 years
p4524
I2
sVhas passed
p4525
I1
sVyour education
p4526
I1
sVdefense industry
p4527
I1
sVat school
p4528
I1
sVnuclear weapon
p4529
I2
sVof manufacturing
p4530
I1
sVthe challenge
p4531
I1
sVnot forget
p4532
I1
sVwar footing
p4533
I1
sVve been
p4534
I1
sVa second
p4535
I3
sVgreat trial
p4536
I1
sVwashington state
p4537
I2
sVof cargo
p4538
I1
sVgreat product
p4539
I1
sVto asheville
p4540
I1
sVthe bills
p4541
I2
sVhe changed
p4542
I1
sVhe anticipated
p4543
I1
sVword compromise
p4544
I1
sVdavid jobe
p4545
I1
sVis vast
p4546
I1
sVwithout them
p4547
I2
sVdarkhorse marines
p4548
I1
sVis how
p4549
I1
sVamerican manufacturing
p4550
I2
sVsee you
p4551
I2
sVof urgency
p4552
I1
sVt graduating
p4553
I1
sValways faithful
p4554
I1
sVfour years
p4555
I3
sVshipped overseas
p4556
I1
sVugly day
p4557
I1
sVseat everybody
p4558
I1
sVnext time
p4559
I1
sVof things
p4560
I1
sVmore land
p4561
I1
sVto repeal
p4562
I1
sVyour families
p4563
I4
sVhumbling job
p4564
I1
sVtaken it
p4565
I1
sVthe 1950s
p4566
I2
sVa teacher
p4567
I1
sVof ashes
p4568
I1
sVs grace
p4569
I1
sVwere right
p4570
I2
sVre wrong
p4571
I1
sVyour employers
p4572
I1
sVis peaceful
p4573
I1
sVas ever
p4574
I1
sVentire world
p4575
I1
sVthe mortgage
p4576
I1
sVcontinual warfare
p4577
I1
sVto extremists
p4578
I1
sVonce more
p4579
I1
sVall safe
p4580
I1
sVacknowledge them
p4581
I1
sVt want
p4582
I1
sVthose communities
p4583
I1
sVblock it
p4584
I1
sVtime high
p4585
I2
sVand curious
p4586
I1
sVwas undocumented
p4587
I1
sVperfect solutions
p4588
I1
sVimproved security
p4589
I1
sVbe uncertain
p4590
I1
sVour units
p4591
I1
sVnext step
p4592
I1
sVnext decade
p4593
I1
sVe b
p4594
I1
sVs go
p4595
I1
sVwelcome it
p4596
I1
sVamerica great
p4597
I1
sVheinous act
p4598
I1
sVcannot avoid
p4599
I1
sVrecent years
p4600
I1
sVi africa
p4601
I1
sVas ourselves
p4602
I1
sVsmarter practices
p4603
I1
sVsecurity cooperation
p4604
I1
sVyear old
p4605
I1
sVfor medicare
p4606
I2
sVsomething takes
p4607
I1
sVlike him
p4608
I1
sVcame here
p4609
I1
sVof evidence
p4610
I1
sVso clearly
p4611
I1
sVa tiger
p4612
I1
sVcoming home
p4613
I2
sV12th grade
p4614
I1
sVall share
p4615
I2
sVnear affordable
p4616
I1
sVthese sciences
p4617
I1
sVour thinking
p4618
I1
sVtook office
p4619
I9
sVand freedom
p4620
I1
sVillustrious history
p4621
I1
sVthe lead
p4622
I1
sVto college
p4623
I3
sVnobel laureates
p4624
I1
sVapplication process
p4625
I1
sVreally
p4626
I1
sVsame thing
p4627
I2
sVonly way
p4628
I1
sVown purposes
p4629
I3
sVworks there
p4630
I1
sValone towns
p4631
I1
sVfuture generations
p4632
I5
sVthat loss
p4633
I1
sVyour homes
p4634
I1
sVthat energy
p4635
I1
sVwas speaking
p4636
I1
sVa place
p4637
I1
sValready happening
p4638
I2
sVnot bigger
p4639
I1
sVlook like
p4640
I3
sVcourt tests
p4641
I1
sVt comprehend
p4642
I1
sVpromote growth
p4643
I1
sVin newtown
p4644
I2
sVgolly
p4645
I1
sVmoving backwards
p4646
I1
sVof detection
p4647
I1
sVhim yesterday
p4648
I1
sVall burdens
p4649
I1
sVmedical research
p4650
I3
sVcommon future
p4651
I1
sVour homeland
p4652
I1
sVfor influence
p4653
I1
sVtheir shoes
p4654
I1
sVpendleton marines
p4655
I1
sVobama thobela
p4656
I1
sVactual photo
p4657
I1
sVget there
p4658
I4
sVcomplicated time
p4659
I1
sVexhortation alone
p4660
I1
sVhector pieterson
p4661
I1
sVi love
p4662
I1
sVwas frozen
p4663
I1
sVof west
p4664
I1
sVlife sentence
p4665
I2
sVbad weather
p4666
I1
sVcare reform
p4667
I2
sVof sciences
p4668
I1
sVforefathers fought
p4669
I1
sVs negotiate
p4670
I1
sVbigger now
p4671
I1
sVand lasting
p4672
I1
sVnew industries
p4673
I1
sVbe strong
p4674
I1
sVgood man
p4675
I1
sVthat nation
p4676
I1
sVthis effort
p4677
I1
sVbe afraid
p4678
I2
sVworkforce young
p4679
I1
sVthree parts
p4680
I1
sVor better
p4681
I1
sVserved us
p4682
I1
sVhello buffalo
p4683
I1
sVbasketball team
p4684
I1
sVof you
p4685
I14
sVare you
p4686
I1
sVterrific values
p4687
I1
sVyear ago
p4688
I1
sV15 years
p4689
I2
sVoccasional setback
p4690
I1
sVyou believe
p4691
I1
sVwho perished
p4692
I1
sVtrue security
p4693
I1
sVever seen
p4694
I1
sVto continue
p4695
I1
sVfor yourself
p4696
I2
sVon submarines
p4697
I1
sVtwo kids
p4698
I1
sVbe bamboozled
p4699
I1
sVsigned up
p4700
I2
sVfederal program
p4701
I1
sVeducational quality
p4702
I1
sVsad circumstances
p4703
I1
sVfootball fields
p4704
I1
sVfor leadership
p4705
I1
sVon it
p4706
I3
sVcargo planes
p4707
I1
sVzoo animals
p4708
I1
sVmonthly premiums
p4709
I1
sVamerican team
p4710
I1
sVyou help
p4711
I1
sVsingle dime
p4712
I1
sVher classroom
p4713
I1
sVthe americas
p4714
I2
sVor delay
p4715
I2
sVclose guantanamo
p4716
I2
sVhere today
p4717
I20
sVcountry safer
p4718
I1
sVsymbolic foods
p4719
I1
sVquality coverage
p4720
I1
sVtheir customers
p4721
I1
sVthe sick
p4722
I1
sVevery war
p4723
I1
sVcincinnati contractor
p4724
I1
sVskilled jobs
p4725
I1
sVis overwhelming
p4726
I1
sVken salazar
p4727
I1
sVamericans share
p4728
I1
sVon you
p4729
I4
sVs atmosphere
p4730
I1
sVa mob
p4731
I1
sVon going
p4732
I2
sVour debt
p4733
I1
sVyork city
p4734
I1
sVold battles
p4735
I1
sVfair shot
p4736
I3
sVin june
p4737
I1
sVohio citizens
p4738
I1
sVthrough fire
p4739
I1
sVworn shoes
p4740
I1
sVof progress
p4741
I2
sVafghan government
p4742
I2
sVclass education
p4743
I1
sVcan deliver
p4744
I2
sVfair share
p4745
I1
sVafford it
p4746
I3
sVmoment requires
p4747
I2
sVthere faster
p4748
I1
sVdumelang
p4749
I1
sVfrom poverty
p4750
I1
sVglobal affairs
p4751
I1
sVthing ohio
p4752
I1
sVthem today
p4753
I2
sVpreschool program
p4754
I1
sVfrom us
p4755
I4
sVterm thinking
p4756
I2
sVreperile
p4757
I1
sVwere killed
p4758
I1
sVso far
p4759
I3
sVthriving economy
p4760
I1
sVand peace
p4761
I2
sVfinal point
p4762
I1
sVand business
p4763
I1
sVclasses here
p4764
I1
sVenhanced it
p4765
I1
sVdemocracy demands
p4766
I1
sVs education
p4767
I1
sV21st century
p4768
I9
sVand displaced
p4769
I1
sVself reliant
p4770
I1
sVs not
p4771
I2
sVand fatherhood
p4772
I1
sVof children
p4773
I1
sVchuck schumer
p4774
I1
sVof responsibilities
p4775
I1
sVswat team
p4776
I1
sVpacific partnership
p4777
I1
sVunimaginable adversity
p4778
I1
sVasked support
p4779
I1
sVin bethlehem
p4780
I1
sVour recovery
p4781
I1
sVreally smart
p4782
I1
sVa majorette
p4783
I1
sVanybody out
p4784
I1
sVplant leaves
p4785
I1
sVown futures
p4786
I1
sVthese wars
p4787
I2
sVprofessional life
p4788
I1
sVpolitical risks
p4789
I1
sVdangerous people
p4790
I2
sVsee
p4791
I1
sVnot america
p4792
I1
sVmuch more
p4793
I1
sVhumanitarian donor
p4794
I1
sVin stuff
p4795
I1
sVmore stability
p4796
I1
sVthe line
p4797
I1
sVsame work
p4798
I1
sVslow process
p4799
I1
sVwith impunity
p4800
I1
sVthose words
p4801
I1
sVplease
p4802
I1
sVthey ask
p4803
I1
sVthis academy
p4804
I2
sVfor business
p4805
I1
sVthis morning
p4806
I2
sV75 percent
p4807
I1
sVof politics
p4808
I1
sVright direction
p4809
I1
sVour comprehension
p4810
I1
sVthe science
p4811
I1
sVhis demise
p4812
I1
sVupstaging me
p4813
I1
sVeconomy grow
p4814
I1
sVeducation is
p4815
I1
sVa life
p4816
I1
sVsell out
p4817
I1
sVjudicial authority
p4818
I1
sVlast week
p4819
I1
sVof points
p4820
I2
sVdecades now
p4821
I1
sVemphasize this
p4822
I1
sVperfect strangers
p4823
I1
sVbeen tried
p4824
I1
sVenergy costs
p4825
I2
sVwith people
p4826
I1
sVof dignity
p4827
I1
sVbig cranes
p4828
I1
sVsaw citizenship
p4829
I2
sVand sun
p4830
I1
sVself government
p4831
I3
sVplain dealer
p4832
I1
sVgood pay
p4833
I1
sVhuman liberty
p4834
I1
sVdue process
p4835
I1
sVover responsibility
p4836
I1
sVyears time
p4837
I1
sVnation stronger
p4838
I1
sVm sorry
p4839
I1
sVare they
p4840
I2
sVseveral weeks
p4841
I1
sVat war
p4842
I1
sVabout government
p4843
I1
sVgrowing opportunity
p4844
I1
sVs health
p4845
I1
sVrelinquish power
p4846
I1
sVm mad
p4847
I1
sVare saying
p4848
I1
sVthe debt
p4849
I1
sVsanibona
p4850
I1
sVthose things
p4851
I1
sVthat reform
p4852
I1
sVfactors involved
p4853
I1
sVmake change
p4854
I1
sVdoing harm
p4855
I1
sVillegal immigrant
p4856
I1
sVfinal draft
p4857
I1
sVdown neighborhoods
p4858
I1
sVyou deserve
p4859
I3
sVthe trip
p4860
I1
sVbig ships
p4861
I1
sVhas changed
p4862
I2
sVavondale arizona
p4863
I1
sVforget that
p4864
I1
sVtuition down
p4865
I1
sVfighting for
p4866
I9
sVcleaner energy
p4867
I1
sVpolicy idea
p4868
I1
sVcar note
p4869
I1
sVon all
p4870
I1
sVgovernment resources
p4871
I1
sVfor justice
p4872
I1
sVupbringing was
p4873
I1
sVin boston
p4874
I2
sVaudience reperile
p4875
I1
sVthis out
p4876
I1
sVour civilization
p4877
I2
sVgarment district
p4878
I1
sVfun today
p4879
I1
sVabout people
p4880
I1
sVjacksonville today
p4881
I1
sVself interest
p4882
I1
sVto crisis
p4883
I1
sVfire seasons
p4884
I1
sVis different
p4885
I1
sVcount on
p4886
I1
sVup huh
p4887
I1
sVs tradition
p4888
I1
sVto citizenship
p4889
I3
sVto lead
p4890
I1
sVthose neighborhoods
p4891
I1
sVcommon ground
p4892
I1
sVdays ago
p4893
I1
sVcan apply
p4894
I1
sVproliferation regime
p4895
I1
sVbreaking me
p4896
I1
sVsometimes tempting
p4897
I1
sVof speeches
p4898
I1
sVon working
p4899
I1
sVof competition
p4900
I1
sVnot karl
p4901
I1
sVclose range
p4902
I1
sVthe horizon
p4903
I4
sV1 percent
p4904
I1
sVmike thomas
p4905
I1
sVfor passage
p4906
I1
sVsmall business
p4907
I3
sVare remarkable
p4908
I1
sVthe proposal
p4909
I1
sVof inaction
p4910
I1
sVback decades
p4911
I1
sVfounding creed
p4912
I1
sVeating breakfast
p4913
I1
sVhis legs
p4914
I2
sVon exports
p4915
I1
sVin virginia
p4916
I1
sVfor what
p4917
I1
sVus apart
p4918
I1
sVthan anybody
p4919
I1
sVup to
p4920
I1
sVamerican energy
p4921
I1
sVcivil society
p4922
I2
sVas fast
p4923
I1
sVthat number
p4924
I2
sVyou accountable
p4925
I2
sVcarefully scrutinized
p4926
I1
sVown destiny
p4927
I1
sVthe fight
p4928
I4
sVthese issues
p4929
I6
sVjim cooper
p4930
I1
sVself defense
p4931
I2
sVour kids
p4932
I5
sVto skyrocket
p4933
I1
sVthat matter
p4934
I1
sVdeep down
p4935
I1
sVbuying on
p4936
I1
sVfractured land
p4937
I1
sVare here
p4938
I1
sVfocus on
p4939
I2
sVthis recession
p4940
I1
sVfor peace
p4941
I2
sVin colorado
p4942
I4
sVof afghanistan
p4943
I1
sVour shores
p4944
I3
sVabsolutely
p4945
I1
sVof them
p4946
I7
sVdo agree
p4947
I2
sVlaw passed
p4948
I1
sVor oppression
p4949
I1
sVhis schoolwork
p4950
I1
sVfeel old
p4951
I1
sVit happen
p4952
I2
sVelves here
p4953
I1
sVtheir obligations
p4954
I1
sVother place
p4955
I1
sVultimately prevent
p4956
I1
sVchuck todd
p4957
I1
sVships properly
p4958
I1
sVfar worse
p4959
I1
sVs democracy
p4960
I1
sVso special
p4961
I1
sVlook far
p4962
I1
sVcan afford
p4963
I3
sVfor generations
p4964
I1
sVelectromechanical engineering
p4965
I1
sVin development
p4966
I1
sVof god
p4967
I1
sVseize it
p4968
I1
sVof groceries
p4969
I1
sVthe atlantic
p4970
I2
sVjust voting
p4971
I1
sVbe them
p4972
I1
sVbe doing
p4973
I1
sVand sangin
p4974
I1
sVfamilies strong
p4975
I1
sVof people
p4976
I2
sVand operating
p4977
I1
sVsame care
p4978
I1
sVtheir best
p4979
I1
sVvery expensive
p4980
I1
sVmichelle says
p4981
I1
sVits heels
p4982
I1
sVis divided
p4983
I1
sVover lockerbie
p4984
I1
sVinnocent life
p4985
I1
sVbarack obama
p4986
I1
sVultimate goal
p4987
I2
sVbeard trimmers
p4988
I1
sVleaders did
p4989
I1
sVcollege year
p4990
I1
sVyou cincinnati
p4991
I1
sVright place
p4992
I1
sVjob growth
p4993
I1
sVthe severn
p4994
I1
sVsense stuff
p4995
I1
sVimperfect choices
p4996
I1
sVcan refinance
p4997
I1
sV15 seconds
p4998
I1
sVand dance
p4999
I1
sVhighest priority
p5000
I9
sVs capabilities
p5001
I1
sVof terrorism
p5002
I1
sVof dollars
p5003
I2
sVare today
p5004
I1
sVeconomic principles
p5005
I1
sVsenseless violence
p5006
I1
sVhaven there
p5007
I1
sVtakes diplomacy
p5008
I1
sVfinal chapter
p5009
I1
sVworking parents
p5010
I1
sVas president
p5011
I2
sVthat history
p5012
I1
sVgrandparents generation
p5013
I1
sVhello bulls
p5014
I1
sVas damaging
p5015
I1
sVin point
p5016
I1
sVsequester cuts
p5017
I1
sVs right
p5018
I1
sVis wrong
p5019
I2
sVnever easy
p5020
I1
sVfuel supplies
p5021
I1
sVs armies
p5022
I1
sVmutual trust
p5023
I1
sVregulatory reform
p5024
I1
sVto recover
p5025
I1
sVam ready
p5026
I1
sVof retaliation
p5027
I1
sVtwo questions
p5028
I1
sVmany specifics
p5029
I1
sVfor terrorism
p5030
I1
sVto pay
p5031
I1
sVyour persistence
p5032
I1
sVachieve it
p5033
I1
sVpublic service
p5034
I1
sVmichelle obama
p5035
I1
sVstrikes washington
p5036
I1
sVrightfully proud
p5037
I1
sVmarine corps
p5038
I4
sVsomething better
p5039
I2
sVto politics
p5040
I1
sVgun issue
p5041
I1
sVamerica home
p5042
I1
sVbetter man
p5043
I1
sVof calm
p5044
I1
sVdon t
p5045
I4
sVit off
p5046
I1
sVand up
p5047
I1
sVjobs overseas
p5048
I1
sVjust discussed
p5049
I1
sVtake off
p5050
I1
sVcard companies
p5051
I1
sVtheir shoulders
p5052
I1
sVa solution
p5053
I2
sVheighten divisions
p5054
I1
sVour goal
p5055
I2
sVyou janice
p5056
I1
sVvisible conflict
p5057
I1
sVwonderful summer
p5058
I1
sVtheir dads
p5059
I1
sVhello
p5060
I1
sVhamid karzai
p5061
I1
sVthese reforms
p5062
I1
sVmagazine cover
p5063
I1
sVthese choices
p5064
I1
sVremains unquestioned
p5065
I1
sVto move
p5066
I1
sVa dictator
p5067
I1
sVthe team
p5068
I1
sVthe banks
p5069
I1
sVa verdict
p5070
I1
sVmove on
p5071
I1
sVmachine operator
p5072
I1
sVyour wages
p5073
I1
sVtuition payments
p5074
I1
sVfaster sooner
p5075
I1
sVcommon humanity
p5076
I2
sVyears ago
p5077
I11
sVsea levels
p5078
I1
sVhave today
p5079
I2
sVgeorge redd
p5080
I1
sVfuture immigrants
p5081
I1
sVa beat
p5082
I1
sVtoo late
p5083
I2
sVa profit
p5084
I1
sVtrying times
p5085
I1
sVby force
p5086
I1
sVhave surged
p5087
I1
sVa moment
p5088
I1
sVyourself down
p5089
I1
sVto decide
p5090
I1
sVthe 6th
p5091
I1
sVsingers here
p5092
I1
sVhere tonight
p5093
I1
sVglobal marketplace
p5094
I1
sVthan before
p5095
I1
sVthe result
p5096
I1
sVhappening again
p5097
I1
sVdana rohrabacher
p5098
I1
sVjob done
p5099
I2
sVlook back
p5100
I1
sVyears now
p5101
I1
sVfor americans
p5102
I1
sVkicked in
p5103
I1
sVto history
p5104
I1
sVchange it
p5105
I2
sVyour voice
p5106
I1
sVafter all
p5107
I1
sVchecks entirely
p5108
I1
sVgeorge washington
p5109
I1
sVand marines
p5110
I1
sVof science
p5111
I1
sVwith renting
p5112
I1
sVand science
p5113
I1
sVhello texas
p5114
I1
sVin tennessee
p5115
I1
sVholy land
p5116
I2
sVthey were
p5117
I1
sVthe norm
p5118
I1
sVnice clubhouse
p5119
I1
sVmy life
p5120
I2
sVnot repeat
p5121
I1
sVfocused on
p5122
I3
sVabout politics
p5123
I3
sVthree pages
p5124
I1
sVnew skills
p5125
I2
sValways do
p5126
I1
sVof terrorists
p5127
I1
sVby extremism
p5128
I1
sVhave earned
p5129
I1
sVwrong time
p5130
I2
sVyou try
p5131
I5
sVselective amnesia
p5132
I1
sVon end
p5133
I1
sVtoo much
p5134
I2
sVits part
p5135
I1
sVbest educated
p5136
I1
sVsome advice
p5137
I1
sVlegal immigrants
p5138
I1
sVleaders responded
p5139
I1
sVfor freedom
p5140
I4
sVencourage fatherhood
p5141
I1
sVeastern congo
p5142
I1
sVand remember
p5143
I1
sVyou make
p5144
I1
sVa friend
p5145
I1
sVpolitical settlement
p5146
I1
sVfair play
p5147
I1
sVthose businesses
p5148
I1
sVus safe
p5149
I1
sVmore together
p5150
I1
sVdo administratively
p5151
I1
sVgrumpy husbands
p5152
I1
sVborne them
p5153
I1
sVmedpac program
p5154
I1
sVcivil disobedience
p5155
I1
sVhowdy manor
p5156
I1
sVnext push
p5157
I1
sVinterest rates
p5158
I2
sVthat tuckpointing
p5159
I1
sVto yourself
p5160
I1
sVa generation
p5161
I1
sVlunar orbit
p5162
I1
sVover there
p5163
I1
sVof reason
p5164
I1
sVthat grace
p5165
I1
sVfirst day
p5166
I1
sVcare costs
p5167
I1
sVfrom japan
p5168
I3
sVbuilt yet
p5169
I1
sVterrorist suspects
p5170
I1
sVre made
p5171
I3
sVlongstanding partnership
p5172
I1
sVthese voices
p5173
I1
sVan example
p5174
I1
sVgood judgment
p5175
I1
sVit too
p5176
I4
sVunderstand it
p5177
I1
sVher dreams
p5178
I1
sVover boston
p5179
I2
sVpretty straightforward
p5180
I2
sVstart them
p5181
I1
sVis myrna
p5182
I1
sVtheir job
p5183
I4
sVto vote
p5184
I2
sVour efforts
p5185
I3
sVa cause
p5186
I1
sVin miracles
p5187
I1
sVs tough
p5188
I1
sVis doing
p5189
I1
sVhe is
p5190
I2
sVstone unturned
p5191
I1
sVhappened before
p5192
I1
sVmy roof
p5193
I1
sVs affordable
p5194
I2
sVtheir turn
p5195
I1
sVthat hole
p5196
I1
sVs war
p5197
I2
sVthese families
p5198
I3
sVopenness won
p5199
I1
sVmichele bachmann
p5200
I1
sVworld experiences
p5201
I1
sVthis building
p5202
I1
sVour union
p5203
I1
sVand sasha
p5204
I2
sVhuman being
p5205
I1
sVformula here
p5206
I1
sVsecond amendment
p5207
I1
sVcounterterrorism strategy
p5208
I1
sVcare issue
p5209
I1
sVnew marketplace
p5210
I1
sVits brightest
p5211
I2
sVtax revenue
p5212
I1
sVwithout work
p5213
I1
sVsix months
p5214
I1
sVof conflict
p5215
I1
sVto race
p5216
I1
sVhaunts us
p5217
I1
sVeternal peace
p5218
I1
sVsent you
p5219
I1
sVown country
p5220
I1
sVgoing away
p5221
I1
sVit together
p5222
I3
sV57 yemenis
p5223
I1
sVto bed
p5224
I2
sVdifferent tests
p5225
I1
sVtheir shares
p5226
I1
sVat civilians
p5227
I1
sVthe core
p5228
I1
sVact right
p5229
I1
sVthe union
p5230
I1
sVthe peace
p5231
I4
sVof him
p5232
I4
sVlittle nervous
p5233
I1
sVhis grandparents
p5234
I1
sVto power
p5235
I1
sVbetween people
p5236
I1
sVby rail
p5237
I1
sVand failures
p5238
I1
sVmore workers
p5239
I1
sVbigger horizons
p5240
I1
sVfair prices
p5241
I1
sVgreat education
p5242
I3
sVnot surprising
p5243
I1
sVown constitution
p5244
I1
sVunited states
p5245
I19
sVinternational crisis
p5246
I1
sVsomething else
p5247
I1
sVthat part
p5248
I1
sVthat introduction
p5249
I1
sVour prisons
p5250
I1
sVachievement gaps
p5251
I1
sVbelieve in
p5252
I2
sVthe cut
p5253
I1
sVin them
p5254
I1
sVa peg
p5255
I1
sVcan relate
p5256
I1
sVsuicide bombers
p5257
I1
sVt need
p5258
I1
sVour cars
p5259
I1
sVevery day
p5260
I6
sVpolitical track
p5261
I1
sVworking on
p5262
I1
sVgreat job
p5263
I4
sVhistory advises
p5264
I1
sVmy house
p5265
I1
sVextreme poverty
p5266
I1
sVits salvation
p5267
I1
sVand prosperity
p5268
I3
sVdo more
p5269
I1
sVspoke about
p5270
I1
sVstop me
p5271
I1
sVtheir trust
p5272
I1
sVto electricity
p5273
I1
sVearliest years
p5274
I1
sVfor free
p5275
I1
sVthat review
p5276
I1
sVspecial operators
p5277
I1
sVsaid so
p5278
I1
sVkeep working
p5279
I1
sVnew industry
p5280
I1
sVat it
p5281
I2
sVa year
p5282
I4
sVtheir families
p5283
I10
sVmorehouse college
p5284
I1
sVthe region
p5285
I4
sVyear olds
p5286
I1
sVs immigration
p5287
I1
sVout west
p5288
I1
sVeretz israel
p5289
I1
sVrepublican president
p5290
I2
sVthe worse
p5291
I1
sVin scranton
p5292
I1
sVinternational order
p5293
I1
sVfederal agencies
p5294
I1
sVof options
p5295
I1
sVbrought you
p5296
I1
sVwhole day
p5297
I1
sVbe back
p5298
I6
sVcase basis
p5299
I1
sVdire straits
p5300
I1
sVman down
p5301
I1
sVcreating jobs
p5302
I1
sVit mildly
p5303
I1
sVat peace
p5304
I1
sVafrican relations
p5305
I1
sVsince newtown
p5306
I1
sVget by
p5307
I5
sVthose distractions
p5308
I1
sVface justice
p5309
I1
sVassociated forces
p5310
I2
sVor less
p5311
I1
sVevery instance
p5312
I1
sVthat devastation
p5313
I1
sVand kansas
p5314
I1
sVsystem works
p5315
I1
sVserious note
p5316
I1
sVand women
p5317
I1
sVtoo excited
p5318
I1
sVour country
p5319
I6
sVdecember 15th
p5320
I1
sVfallout shelters
p5321
I1
sVthe west
p5322
I1
sVthese efforts
p5323
I1
sVwe expected
p5324
I2
sVwith hiv
p5325
I1
sVoutstanding job
p5326
I1
sVnuclear terrorism
p5327
I1
sVeconomic shutdown
p5328
I2
sVfew weeks
p5329
I1
sVsurrounding area
p5330
I1
sVa time
p5331
I2
sVamerican citizens
p5332
I1
sVit works
p5333
I1
sVand pages
p5334
I1
sVre going
p5335
I1
sVsimilar tragedies
p5336
I1
sVin august
p5337
I1
sVother towns
p5338
I1
sVback then
p5339
I1
sVyour community
p5340
I1
sVthe cia
p5341
I1
sVbusiness done
p5342
I1
sVencouraging signs
p5343
I1
sVproud them
p5344
I1
sVthe name
p5345
I1
sVit away
p5346
I1
sVfederal levels
p5347
I1
sVwell connected
p5348
I1
sVto survive
p5349
I1
sVlike us
p5350
I2
sVcare altogether
p5351
I1
sVdemocratic path
p5352
I1
sVare unhappy
p5353
I1
sVconstitutional democracy
p5354
I2
sVachieve that
p5355
I1
sVtheir sacrifice
p5356
I2
sVcherished values
p5357
I1
sVlast year
p5358
I1
sVis filled
p5359
I1
sVbehind it
p5360
I1
sVtough guy
p5361
I1
sVopinion overseas
p5362
I1
sVto man
p5363
I1
sVideas are
p5364
I1
sVshe is
p5365
I3
sVsecrets doctrine
p5366
I1
sVtraffic faster
p5367
I1
sVre right
p5368
I2
sVcan ripple
p5369
I1
sVsomething here
p5370
I1
sVnation forward
p5371
I1
sVenormous change
p5372
I1
sVneeds you
p5373
I3
sVfall down
p5374
I1
sVare challenged
p5375
I1
sVgenerate electricity
p5376
I1
sVget done
p5377
I4
sVphony scandals
p5378
I1
sVcountry illegally
p5379
I1
sVwait years
p5380
I1
sVd ivoire
p5381
I1
sVthat reaction
p5382
I1
sVthe website
p5383
I1
sVall time
p5384
I1
sVup crises
p5385
I1
sVyou sit
p5386
I1
sVtheir pockets
p5387
I2
sVrecovery ohio
p5388
I1
sVits own
p5389
I2
sVunder stress
p5390
I1
sVtheir names
p5391
I1
sVwith congress
p5392
I2
sVabout reform
p5393
I1
sVking invoked
p5394
I1
sVproblem together
p5395
I2
sVmany people
p5396
I1
sVhistoric change
p5397
I1
sVwill have
p5398
I1
sVdo right
p5399
I1
sVthey received
p5400
I1
sVabout that
p5401
I11
sVand bali
p5402
I1
sVit is
p5403
I1
sVcarbon economy
p5404
I1
sVstate marketplaces
p5405
I1
sVnot possible
p5406
I1
sVlook good
p5407
I1
sVpolice officer
p5408
I2
sVto try
p5409
I5
sVyou everybody
p5410
I6
sVbe easy
p5411
I4
sVfelt threatened
p5412
I1
sVnew investment
p5413
I1
sVof cars
p5414
I1
sVa president
p5415
I3
sVbe accurate
p5416
I1
sVgovernments matter
p5417
I1
sVbeen wrong
p5418
I1
sVown safety
p5419
I1
sVyellow kicks
p5420
I1
sVmm hmm
p5421
I2
sVhello everybody
p5422
I3
sVourselves up
p5423
I1
sVtheir shareholders
p5424
I1
sVmore affordable
p5425
I1
sVof factors
p5426
I1
sVand money
p5427
I1
sVwe win
p5428
I1
sVn inspectors
p5429
I1
sVfive seconds
p5430
I1
sVin israel
p5431
I1
sVbuilding things
p5432
I1
sVand forever
p5433
I1
sVabout insurance
p5434
I1
sVand uncertain
p5435
I1
sVbudget office
p5436
I1
sVwith leukemia
p5437
I1
sVhigh schoolers
p5438
I1
sVbeing lost
p5439
I1
sVhappening overseas
p5440
I1
sVreimbursed for
p5441
I1
sVthis legislation
p5442
I1
sVour daughters
p5443
I2
sVfaced ridicule
p5444
I1
sVof victory
p5445
I1
sVand helpful
p5446
I1
sVaffordable coverage
p5447
I2
sVnot sustainable
p5448
I1
sVa fantasy
p5449
I1
sVcouncil president
p5450
I1
sVit repealed
p5451
I1
sVessential truth
p5452
I1
sVto infrastructure
p5453
I1
sVm joking
p5454
I1
sVthe program
p5455
I2
sVare clear
p5456
I1
sVwe care
p5457
I1
sVthat chance
p5458
I3
sVeconomy back
p5459
I1
sVwe can
p5460
I4
sVhyde park
p5461
I1
sVlike it
p5462
I1
sVthe corner
p5463
I1
sVcarbon pollution
p5464
I9
sVhealth issues
p5465
I1
sVwe race
p5466
I1
sVbeen rewarded
p5467
I1
sVbefore you
p5468
I2
sVpass one
p5469
I1
sV340 million
p5470
I1
sVs abundance
p5471
I1
sVdianna degette
p5472
I1
sVhas turned
p5473
I1
sVnot enough
p5474
I3
sVthe work
p5475
I1
sVbehind us
p5476
I2
sVmust change
p5477
I1
sVto africa
p5478
I4
sVwill form
p5479
I1
sVvery quickly
p5480
I1
sVto respond
p5481
I1
sVfrom congress
p5482
I1
sVwere immense
p5483
I1
sVour disposal
p5484
I1
sVrang up
p5485
I1
sVnew things
p5486
I1
sVnever guaranteed
p5487
I1
sVagainst them
p5488
I1
sVare solvable
p5489
I1
sVto compromise
p5490
I1
sVever known
p5491
I3
sVto clap
p5492
I1
sVout why
p5493
I1
sVseemed unimaginable
p5494
I1
sVwith pakistan
p5495
I1
sVfair right
p5496
I1
sVcountry together
p5497
I1
sVcan lend
p5498
I1
sVwe act
p5499
I1
sVdoing here
p5500
I1
sVbeloved city
p5501
I1
sVthat cycle
p5502
I1
sVi will
p5503
I1
sVgermany is
p5504
I1
sVnever had
p5505
I1
sVwartime footing
p5506
I2
sVhealth care
p5507
I10
sVeconomic growth
p5508
I7
sVthe house
p5509
I5
sVthe executives
p5510
I1
sVsomehow complete
p5511
I1
sVthird countries
p5512
I1
sVbe president
p5513
I1
sVhouse changed
p5514
I1
sVever since
p5515
I1
sVbad break
p5516
I1
sVand vans
p5517
I1
sVfellow policymakers
p5518
I1
sVits ideology
p5519
I1
sVrounds fired
p5520
I1
sVtech jobs
p5521
I2
sVand fair
p5522
I1
sVsteady leadership
p5523
I1
sVso important
p5524
I3
sVare neighbors
p5525
I1
sVbad economics
p5526
I1
sVme hope
p5527
I1
sVbeen served
p5528
I1
sVyour command
p5529
I1
sVdeep roots
p5530
I1
sVorganize conversations
p5531
I1
sVre creating
p5532
I1
sVand pennsylvania
p5533
I1
sVthings fail
p5534
I1
sValmost everything
p5535
I2
sVbe confronted
p5536
I1
sVthis though
p5537
I1
sVof immigrants
p5538
I5
sVa crime
p5539
I2
sVhello morehouse
p5540
I1
sVterry bellamy
p5541
I1
sVin chicago
p5542
I1
sVsome roots
p5543
I1
sVpushing for
p5544
I2
sVsovereign state
p5545
I1
sVthe mall
p5546
I1
sVwere born
p5547
I2
sVnumber one
p5548
I1
sVdream act
p5549
I1
sVbe outsourced
p5550
I1
sVcost students
p5551
I1
sVswim team
p5552
I1
sVeven more
p5553
I3
sVmoney whatsoever
p5554
I1
sVwage war
p5555
I1
sVfor all
p5556
I5
sVfuel sources
p5557
I1
sVthe explosion
p5558
I1
sVis protected
p5559
I1
sVmy imperfections
p5560
I1
sVcouncil resolutions
p5561
I1
sVhello cincinnati
p5562
I1
sVprescription drugs
p5563
I1
sVthat responsibility
p5564
I1
sVis rebounding
p5565
I1
sVreal business
p5566
I1
sVof late
p5567
I1
sVin west
p5568
I2
sVan end
p5569
I5
sVto see
p5570
I6
sVfrom michigan
p5571
I1
sVthe ground
p5572
I6
sVfeel safe
p5573
I1
sVwas taken
p5574
I1
sVof happiness
p5575
I4
sVbeen negative
p5576
I2
sVfolks were
p5577
I1
sVare broken
p5578
I1
sVfreedom songs
p5579
I1
sVtheir constituents
p5580
I1
sVhardworking families
p5581
I1
sVsome luck
p5582
I1
sVour assistance
p5583
I1
sVof iran
p5584
I1
sVown experience
p5585
I1
sVpolitical figure
p5586
I1
sVamerican industry
p5587
I1
sVhow zit
p5588
I1
sVcivilian efforts
p5589
I1
sVit most
p5590
I1
sVof iraq
p5591
I1
sVdevastated oklahoma
p5592
I1
sVwith yours
p5593
I1
sVmanufactured crises
p5594
I1
sVwill be
p5595
I3
sVof discovery
p5596
I1
sVt we
p5597
I1
sVthe dorms
p5598
I1
sVshape it
p5599
I1
sVsame rules
p5600
I1
sVnot forgotten
p5601
I1
sVhaltingly advanced
p5602
I1
sVeven further
p5603
I1
sVat church
p5604
I1
sVcalled selectusa
p5605
I1
sVraise one
p5606
I2
sVfrom within
p5607
I1
sVcreate jobs
p5608
I2
sVbest choice
p5609
I1
sVpersonal security
p5610
I1
sVgo back
p5611
I1
sVsomething positive
p5612
I1
sVthan not
p5613
I1
sVrugged mountains
p5614
I1
sVor faction
p5615
I1
sVtreatment yet
p5616
I1
sVnational security
p5617
I6
sVtime employment
p5618
I1
sVof luck
p5619
I1
sVworking fine
p5620
I1
sVmy staff
p5621
I1
sVwealthy family
p5622
I1
sVway around
p5623
I1
sVstorm barriers
p5624
I1
sVdoing that
p5625
I1
sVflood risks
p5626
I1
sVand effective
p5627
I1
sVc span
p5628
I2
sVour agenda
p5629
I1
sVthe outside
p5630
I2
sVfor reinvention
p5631
I1
sVpull together
p5632
I1
sVfor participating
p5633
I1
sVand again
p5634
I1
sVtheir grandparents
p5635
I1
sVfor progress
p5636
I2
sVyour fingertips
p5637
I1
sVyou too
p5638
I3
sVi disagree
p5639
I1
sVcan begin
p5640
I1
sVcomplicated times
p5641
I1
sVfought back
p5642
I2
sVway back
p5643
I3
sVgeneral busby
p5644
I1
sVprivate emails
p5645
I1
sVcan we
p5646
I1
sVroaring back
p5647
I1
sVgood deal
p5648
I1
sVeven earlier
p5649
I1
sVafrica rising
p5650
I1
sVa family
p5651
I4
sVnations itself
p5652
I1
sVof nations
p5653
I2
sVits job
p5654
I1
sVroutine tasks
p5655
I1
sVour grasp
p5656
I1
sVrowing team
p5657
I1
sVis happening
p5658
I1
sVstanton here
p5659
I1
sVis simple
p5660
I1
sVoperating system
p5661
I1
sVmonth forever
p5662
I1
sVall that
p5663
I1
sVsome security
p5664
I1
sVcollective action
p5665
I1
sVour action
p5666
I2
sVown liberties
p5667
I1
sVare marching
p5668
I2
sVi want
p5669
I1
sVcare dollar
p5670
I1
sVrecord high
p5671
I1
sVthe balkans
p5672
I1
sVof that
p5673
I4
sVagree on
p5674
I1
sVon anything
p5675
I2
sVfixed it
p5676
I1
sVquality care
p5677
I1
sVway forward
p5678
I2
sVdo nothing
p5679
I3
sVreducing inequality
p5680
I1
sVindividual leaders
p5681
I1
sVare hard
p5682
I1
sVbetter protections
p5683
I1
sVthese marketplaces
p5684
I1
sVis bright
p5685
I1
sVwas president
p5686
I1
sVout genocide
p5687
I1
sVto die
p5688
I1
sVenergy era
p5689
I1
sVof innocents
p5690
I1
sVrequire resources
p5691
I1
sVtoo sick
p5692
I1
sVto them
p5693
I7
sVoffice again
p5694
I1
sVmanufactured crisis
p5695
I1
sVstate representative
p5696
I1
sVthat time
p5697
I1
sVfive years
p5698
I2
sVdo pinpricks
p5699
I1
sVjob marketplace
p5700
I1
sVperpetual war
p5701
I2
sVfair wages
p5702
I1
sVgood byes
p5703
I1
sVcompletely safe
p5704
I1
sVnot complacency
p5705
I1
sVpotomac river
p5706
I1
sVinformation networks
p5707
I1
sVas high
p5708
I1
sVall true
p5709
I1
sVsomething personal
p5710
I1
sVyou all
p5711
I2
sVs unbelievable
p5712
I1
sVfamily affair
p5713
I1
sVqaeda worldwide
p5714
I1
sVwe defend
p5715
I1
sVthose protections
p5716
I1
sVs constructive
p5717
I1
sVfrom done
p5718
I1
sVget soaked
p5719
I1
sVthe last
p5720
I2
sVof work
p5721
I2
sVour lifetimes
p5722
I2
sVturning around
p5723
I1
sValready shown
p5724
I1
sVthe edge
p5725
I1
sVit heavily
p5726
I1
sVquiet death
p5727
I1
sVthing done
p5728
I1
sVlower cost
p5729
I1
sVagency said
p5730
I1
sVthese problems
p5731
I1
sVshould accept
p5732
I1
sVeducational buck
p5733
I1
sVtheir neighbors
p5734
I2
sVat stake
p5735
I2
sVin dallas
p5736
I1
sVas italy
p5737
I1
sVabusing it
p5738
I1
sVthe hallways
p5739
I1
sVlip gloss
p5740
I1
sVact alone
p5741
I1
sVdemocratic party
p5742
I1
sVwas before
p5743
I1
sVis administered
p5744
I1
sVscientific process
p5745
I1
sVfrom you
p5746
I1
sVmy studies
p5747
I1
sVsame dreams
p5748
I1
sVone nation
p5749
I1
sVcriminals wanted
p5750
I1
sV40 percent
p5751
I1
sVand steady
p5752
I1
sVare there
p5753
I1
sVhuman folly
p5754
I1
sVyour faith
p5755
I1
sVculture there
p5756
I2
sVpolicy class
p5757
I1
sVthe problems
p5758
I1
sVfor homeownership
p5759
I1
sVjust about
p5760
I1
sVfor good
p5761
I3
sVlife changing
p5762
I1
sVthe least
p5763
I1
sVto somebody
p5764
I1
sVyourselves mentally
p5765
I1
sVpowerful storms
p5766
I1
sVof humankind
p5767
I1
sVis perfect
p5768
I1
sVseth harris
p5769
I1
sVcincinnati chili
p5770
I1
sVdavid pepper
p5771
I1
sVreform done
p5772
I1
sVagainst terrorism
p5773
I1
sVis teaching
p5774
I1
sVs premiums
p5775
I1
sVa lifetime
p5776
I1
sVroutine matter
p5777
I1
sVpay off
p5778
I2
sVyoung man
p5779
I1
sVoff someday
p5780
I1
sVt happen
p5781
I3
sVname it
p5782
I1
sVto life
p5783
I2
sVdifferent faiths
p5784
I1
sVin committee
p5785
I1
sVhere too
p5786
I1
sVinvolves education
p5787
I1
sVclear here
p5788
I1
sVyour goals
p5789
I1
sVorganized labor
p5790
I2
sVand research
p5791
I1
sVbe new
p5792
I1
sVhuman rights
p5793
I2
sVsome flexibility
p5794
I1
sVclose gtmo
p5795
I1
sVhomegrown extremists
p5796
I1
sVus prosperous
p5797
I1
sVfolks think
p5798
I1
sVyour help
p5799
I3
sVyou guys
p5800
I3
sVbubble bursting
p5801
I1
sVknows that
p5802
I1
sVour obligations
p5803
I2
sVmany months
p5804
I1
sVgot shot
p5805
I1
sVs personal
p5806
I1
sVon tv
p5807
I1
sVguantanamo bay
p5808
I1
sVthat either
p5809
I1
sVa book
p5810
I1
sVbe tested
p5811
I1
sVfalse starts
p5812
I1
sVthat day
p5813
I3
sVus today
p5814
I2
sVthat video
p5815
I1
sVthe force
p5816
I1
sVhere together
p5817
I1
sVa chance
p5818
I1
sVstart early
p5819
I2
sVdoors open
p5820
I1
sVpreventive care
p5821
I2
sVs lives
p5822
I2
sVit again
p5823
I2
sVof berlin
p5824
I2
sVour countries
p5825
I2
sVyour homeland
p5826
I1
sVand dishwashers
p5827
I1
sVfunctioning law
p5828
I1
sVbright eyes
p5829
I1
sVamerican patriots
p5830
I1
sVprogress forward
p5831
I1
sVthose jobs
p5832
I6
sVthe grid
p5833
I1
sVof transformation
p5834
I1
sVyoung people
p5835
I8
sVthese proposals
p5836
I1
sVnew sport
p5837
I1
sVwere wounded
p5838
I1
sVforum credits
p5839
I1
sVcarry you
p5840
I1
sVcape town
p5841
I2
sVour ports
p5842
I1
sVbipartisan issue
p5843
I2
sVvery important
p5844
I1
sVi right
p5845
I2
sVappropriate compromise
p5846
I1
sVbe indispensable
p5847
I1
sVtolerance won
p5848
I1
sVgo faster
p5849
I1
sVcommunity better
p5850
I1
sVis strong
p5851
I1
sVthey want
p5852
I1
sVwas possible
p5853
I1
sVrightly concerned
p5854
I1
sVother countries
p5855
I5
sVwas signed
p5856
I1
sVread it
p5857
I1
sVs celebration
p5858
I1
sVagainst civilians
p5859
I1
sVfix that
p5860
I1
sVthe phone
p5861
I1
sVthey believe
p5862
I1
sVown government
p5863
I1
sVs security
p5864
I1
sVmessed up
p5865
I1
sVfor themselves
p5866
I2
sVthe effects
p5867
I1
sVs possible
p5868
I3
sVfinish line
p5869
I1
sVleft vulnerable
p5870
I1
sVand pakistan
p5871
I1
sVseveral days
p5872
I2
sVbipartisan fashion
p5873
I1
sVsyrian people
p5874
I2
sVday out
p5875
I1
sVof force
p5876
I3
sVphiladelphia hall
p5877
I1
sVnot wait
p5878
I1
sVexactly happened
p5879
I1
sVfew months
p5880
I1
sVdesperately need
p5881
I1
sVmembers agree
p5882
I1
sVtheir religion
p5883
I1
sVs working
p5884
I2
sVnew law
p5885
I1
sVat buffalo
p5886
I1
sVdifficult economy
p5887
I1
sVchanging times
p5888
I1
sVthe firepower
p5889
I1
sVthat here
p5890
I1
sVtalking about
p5891
I1
sVfuture lies
p5892
I1
sVthe issue
p5893
I1
sVno different
p5894
I1
sVhe experienced
p5895
I1
sVof dictatorship
p5896
I1
sVhurts them
p5897
I1
sVthe carnegies
p5898
I1
sVhave leukemia
p5899
I1
sVcoming up
p5900
I1
sVbreaking down
p5901
I1
sVnegative reinforcement
p5902
I1
sVlisa madigan
p5903
I1
sVare too
p5904
I1
sVan election
p5905
I1
sVcouldn t
p5906
I1
sVyou hope
p5907
I4
sVactual legislation
p5908
I1
sVand counterterrorism
p5909
I1
sVamong friends
p5910
I1
sVa job
p5911
I5
sVthe globe
p5912
I2
sVovercome barriers
p5913
I1
sVnot fair
p5914
I4
sVfired up
p5915
I14
sVquick buck
p5916
I1
sVin arms
p5917
I1
sVtop universities
p5918
I1
sVsarin gas
p5919
I1
sVand verifiable
p5920
I1
sVin asheville
p5921
I2
sVhis religion
p5922
I1
sVrun businesses
p5923
I1
sVnot me
p5924
I1
sVchallenge demands
p5925
I1
sVdifferent needs
p5926
I1
sVof life
p5927
I4
sVthis speech
p5928
I2
sVsometimes difficult
p5929
I1
sVour demographics
p5930
I1
sVfully tapped
p5931
I1
sVon thursday
p5932
I1
sVsaw ben
p5933
I1
sVour ideals
p5934
I2
sVour borders
p5935
I5
sVfor combat
p5936
I1
sVis growing
p5937
I1
sVno bounce
p5938
I1
sVsimply unacceptable
p5939
I1
sVthe rain
p5940
I1
sVonce closed
p5941
I1
sVrecent example
p5942
I1
sVjust right
p5943
I1
sVbest ideas
p5944
I1
sVdifferent path
p5945
I1
sVtheir jobs
p5946
I4
sVof fate
p5947
I1
sVbeen unemployed
p5948
I1
sVhave coverage
p5949
I1
sVof responsibility
p5950
I1
sVon people
p5951
I1
sVhad changed
p5952
I1
sVs throats
p5953
I1
sVgreat humility
p5954
I1
sVnonproliferation regime
p5955
I1
sVamerican veteran
p5956
I1
sVinto hatred
p5957
I1
sVyour family
p5958
I2
sVthree decades
p5959
I1
sVdemocratic issue
p5960
I1
sVfighting extremists
p5961
I1
sVno obamacare
p5962
I1
sVhousing market
p5963
I2
sVthe weekends
p5964
I1
sVnew york
p5965
I1
sVreject them
p5966
I1
sVwe know
p5967
I2
sVgo forward
p5968
I1
sVyou obama
p5969
I3
sVthe cracks
p5970
I2
sVpotential altercations
p5971
I1
sVgreat nation
p5972
I1
sVnext storm
p5973
I1
sVa thousand
p5974
I1
sVwe created
p5975
I1
sVof democracy
p5976
I1
sVtheir countries
p5977
I1
sVeither buster
p5978
I1
sVstayed here
p5979
I2
sVjoe rugola
p5980
I1
sVall about
p5981
I6
sVmilitary superpower
p5982
I1
sVfirst paycheck
p5983
I2
sVthis back
p5984
I1
sVthe goal
p5985
I1
sVbeen requested
p5986
I1
sVstop there
p5987
I3
sVadaptable economy
p5988
I1
sVthat happened
p5989
I1
sVyour way
p5990
I1
sVextraordinary things
p5991
I1
sVprofits soar
p5992
I1
sVclean energy
p5993
I1
sVlongest war
p5994
I1
sVa week
p5995
I1
sVmust follow
p5996
I1
sVskillful leadership
p5997
I1
sVin illinois
p5998
I1
sVa living
p5999
I1
sVt perfect
p6000
I1
sVwas faring
p6001
I1
sVthis change
p6002
I1
sVour grandkids
p6003
I1
sVever stops
p6004
I1
sVthe gun
p6005
I1
sVmultiple careers
p6006
I1
sVsame time
p6007
I1
sVocean coast
p6008
I1
sVget worse
p6009
I1
sVthe system
p6010
I7
sVpacific region
p6011
I1
sVentire region
p6012
I1
sVof leadership
p6013
I1
sVenergy economy
p6014
I1
sVbill plante
p6015
I1
sVor privilege
p6016
I1
sVamply recorded
p6017
I1
sVthat way
p6018
I4
sVsimple things
p6019
I1
sVmore encouraged
p6020
I1
sVthe top
p6021
I1
sVregime targets
p6022
I1
sVwant to
p6023
I1
sVout okay
p6024
I1
sVdivides us
p6025
I1
sVclearly illegal
p6026
I1
sVsome gravely
p6027
I1
sVthe sun
p6028
I1
sVsomething new
p6029
I1
sV25 years
p6030
I1
sVwhitehouse gov
p6031
I1
sVcivil war
p6032
I5
sVt easy
p6033
I1
sVthe sequester
p6034
I3
sVto make
p6035
I3
sVtheir credit
p6036
I1
sVmore powerful
p6037
I1
sVsystem sounder
p6038
I1
sVthese actions
p6039
I1
sVknows when
p6040
I1
sVmust continue
p6041
I1
sVyour president
p6042
I1
sVthe future
p6043
I9
sVyou benefit
p6044
I1
sVall right
p6045
I7
sVbe leaner
p6046
I1
sVnavies combined
p6047
I1
sVmonth right
p6048
I1
sVbarbara mikulski
p6049
I1
sVthan me
p6050
I1
sVmore free
p6051
I1
sVreturn it
p6052
I1
sVa tuesday
p6053
I1
sVcan set
p6054
I1
sVother ways
p6055
I1
sVtax rates
p6056
I1
sVa person
p6057
I1
sVincentive structure
p6058
I1
sVs intrusive
p6059
I1
sVthe beat
p6060
I1
sVgeneral nicholson
p6061
I1
sVbigger ships
p6062
I1
sVthe rules
p6063
I5
sVabout michelle
p6064
I1
sVboston marathon
p6065
I3
sVis good
p6066
I4
sVthe problem
p6067
I5
sVinsurance reform
p6068
I1
sVhelp students
p6069
I1
sVstart ups
p6070
I1
sVone time
p6071
I1
sVend up
p6072
I2
sVhouse right
p6073
I1
sVamerican boys
p6074
I1
sVto us
p6075
I2
sVdedicated citizens
p6076
I1
sVthis bill
p6077
I3
sVat risk
p6078
I3
sVguns away
p6079
I1
sVhealth problems
p6080
I1
sVso cynical
p6081
I1
sVhas reemerged
p6082
I1
sVfamily on
p6083
I1
sVof laws
p6084
I1
sVare receding
p6085
I1
sVt know
p6086
I4
sValso just
p6087
I1
sVeach other
p6088
I4
sVinto law
p6089
I4
sVyour ideas
p6090
I2
sVwith this
p6091
I1
sVthis generation
p6092
I1
sVsequester remember
p6093
I1
sVtheir family
p6094
I2
sVa seat
p6095
I10
sVschool diploma
p6096
I1
sVhello marines
p6097
I1
sVsized welcome
p6098
I1
sVto it
p6099
I1
sVs population
p6100
I1
sVops team
p6101
I1
sVgood benefits
p6102
I1
sVmore troops
p6103
I1
sVyour patriotism
p6104
I1
sVsprawling continent
p6105
I1
sVtaken place
p6106
I1
sVfor work
p6107
I1
sVour journey
p6108
I1
sVthe payments
p6109
I1
sVtimes square
p6110
I1
sVhad treated
p6111
I1
sVto sign
p6112
I1
sVbe denied
p6113
I1
sVadditional ideas
p6114
I1
sVthere yet
p6115
I2
sVfrom somewhere
p6116
I1
sVthis thing
p6117
I1
sVlas vegas
p6118
I1
sVnever falter
p6119
I1
sVthe proud
p6120
I1
sVhonest look
p6121
I1
sVit up
p6122
I1
sVhard enough
p6123
I1
sVpeople share
p6124
I1
sVsaharan africa
p6125
I1
sVs true
p6126
I1
sVare wrong
p6127
I1
sVthe clock
p6128
I1
sVm tired
p6129
I1
sVs mandate
p6130
I1
sVown right
p6131
I1
sVanna battle
p6132
I1
sVfounding days
p6133
I1
sVdifferent backgrounds
p6134
I1
sVvery young
p6135
I1
sVgreatest hope
p6136
I1
sVhosting us
p6137
I1
sVstand together
p6138
I1
sVextraordinary service
p6139
I2
sVcan implement
p6140
I1
sVour dreams
p6141
I1
sVor so
p6142
I1
sVall discussion
p6143
I1
sVnow growing
p6144
I1
sVsome loopholes
p6145
I1
sVthey do
p6146
I3
sVsugarcoating it
p6147
I1
sVfor years
p6148
I5
sVawaits them
p6149
I1
sVour time
p6150
I4
sVget comfortable
p6151
I1
sVwas passed
p6152
I1
sVnot worry
p6153
I1
sVgood at
p6154
I1
sVfor family
p6155
I1
sVquestion in
p6156
I1
sVat fredericksburg
p6157
I1
sVfor sarin
p6158
I1
sVwere them
p6159
I1
sVthe epa
p6160
I1
sVelection day
p6161
I1
sVbaker hello
p6162
I1
sVsign up
p6163
I2
sVof danger
p6164
I1
sVtwo feet
p6165
I1
sVdoing nothing
p6166
I1
sVmother kathy
p6167
I1
sVmost failures
p6168
I1
sVliving standards
p6169
I1
sVobama right
p6170
I2
sVtell here
p6171
I1
sVsaying no
p6172
I1
sVrecent days
p6173
I2
sVand sportsmen
p6174
I1
sVour lives
p6175
I1
sVlike me
p6176
I2
sVhurricane sandy
p6177
I1
sVevery issue
p6178
I3
sVwrong people
p6179
I1
sVrepublican idea
p6180
I1
sVstopped disproportionately
p6181
I1
sVknowing me
p6182
I1
sVinto session
p6183
I1
sVour interests
p6184
I2
sVcomes from
p6185
I2
sVof famine
p6186
I1
sVlast campaign
p6187
I1
sVthe powerless
p6188
I1
sVoff easy
p6189
I1
sVnot speculation
p6190
I1
sVstep up
p6191
I2
sVto rest
p6192
I1
sVawesome authority
p6193
I1
sVthis one
p6194
I5
sVtakes development
p6195
I1
sVand fear
p6196
I1
sVhelp you
p6197
I1
sVagainst that
p6198
I1
sVbe celebrated
p6199
I1
sVon down
p6200
I1
sVand opportunity
p6201
I1
sVyou lose
p6202
I1
sVlearning here
p6203
I1
sVcannot happen
p6204
I1
sVtheir navigation
p6205
I1
sVthat deal
p6206
I1
sVjobs plan
p6207
I2
sVamericans support
p6208
I2
sVthis office
p6209
I1
sVlong run
p6210
I3
sVa package
p6211
I1
sVold neighborhood
p6212
I1
sVall humanity
p6213
I1
sVaround 30th
p6214
I1
sVon college
p6215
I1
sVinterest today
p6216
I1
sVmakes sense
p6217
I2
sVcollege income
p6218
I1
sVextraordinary recruits
p6219
I1
sVof birth
p6220
I1
sVthat progress
p6221
I1
sVthe heart
p6222
I1
sVof privacy
p6223
I1
sVevery child
p6224
I1
sVjust governments
p6225
I1
sVmillion dollars
p6226
I1
sVour seniors
p6227
I1
sVto happen
p6228
I3
sVmorehouse family
p6229
I1
sVcandy bomber
p6230
I1
sVan effect
p6231
I1
sVgood politics
p6232
I1
sVgood job
p6233
I7
sVgo wrong
p6234
I1
sVi had
p6235
I1
sVsee it
p6236
I1
sVlee zak
p6237
I1
sVvice president
p6238
I1
sVdecades ago
p6239
I3
sVshowing up
p6240
I1
sVhuman dignity
p6241
I2
sVprotein powder
p6242
I1
sVnew fuels
p6243
I1
sVthe streets
p6244
I3
sVt get
p6245
I2
sVpatient care
p6246
I1
sVgood right
p6247
I1
sVbig business
p6248
I1
sVcome down
p6249
I2
sVgo home
p6250
I1
sVgun violence
p6251
I11
sVpreventable disease
p6252
I1
sVfor help
p6253
I1
sVgreatest strengths
p6254
I2
sVs marching
p6255
I2
sVsouth asia
p6256
I1
sVdone yet
p6257
I2
sVare statistics
p6258
I1
sVour past
p6259
I1
sVof maryland
p6260
I1
sV160 workers
p6261
I1
sVaging population
p6262
I1
sVworld live
p6263
I1
sVcome home
p6264
I3
sVour privacy
p6265
I1
sVo h
p6266
I3
sVown together
p6267
I1
sVbreathtaking change
p6268
I1
sVat gtmo
p6269
I1
sVhad suffered
p6270
I1
sVa century
p6271
I1
sVeconomy quadrupled
p6272
I1
sVin washington
p6273
I4
sVcome together
p6274
I1
sVi succeed
p6275
I1
sVabraham lincoln
p6276
I1
sVfor michigan
p6277
I1
sVsupport it
p6278
I3
sVstrengthen us
p6279
I1
sVchange that
p6280
I4
sVwith explosives
p6281
I1
sVa plan
p6282
I1
sVefficiency targets
p6283
I1
sVstruck me
p6284
I1
sVas possible
p6285
I3
sVgrowing economy
p6286
I1
sVquiet time
p6287
I2
sVthat rise
p6288
I1
sVnow confront
p6289
I1
sVleaders need
p6290
I1
sVand win
p6291
I1
sVare unemployed
p6292
I1
sVtroubled minds
p6293
I1
sVnot rich
p6294
I3
sVthis cool
p6295
I1
sVbeing here
p6296
I2
sVlike this
p6297
I2
sVcollege education
p6298
I3
sVpaying jobs
p6299
I1
sValways provided
p6300
I1
sVplainly just
p6301
I1
sVhello chattanooga
p6302
I1
sVtheir mortgages
p6303
I1
sVaddressing it
p6304
I1
sVher ipod
p6305
I1
sVhear them
p6306
I4
sVbad idea
p6307
I2
sVhigher education
p6308
I4
sVminister fayyad
p6309
I1
sVcan operate
p6310
I1
sVimportant issues
p6311
I1
sVtime citizens
p6312
I1
sVown faith
p6313
I1
sVthe tape
p6314
I1
sVreimburse you
p6315
I1
sVhave them
p6316
I1
sVno problem
p6317
I1
sVtheir districts
p6318
I1
sVsecret man
p6319
I1
sVand faith
p6320
I1
sVremains unfinished
p6321
I1
sVand housing
p6322
I2
sVthe urgency
p6323
I1
sVlike manor
p6324
I1
sVgood thing
p6325
I2
sVso hospitable
p6326
I1
sVno
p6327
I1
sVafrican partners
p6328
I1
sVfrom ukraine
p6329
I1
sVthe shadows
p6330
I1
sVback home
p6331
I5
sVterrible storm
p6332
I1
sVnever waver
p6333
I1
sVmore important
p6334
I1
sVmonths ago
p6335
I3
sVfor america
p6336
I1
sVby you
p6337
I3
sVthe damage
p6338
I1
sVamerican century
p6339
I1
sVshadowy networks
p6340
I1
sVbad times
p6341
I1
sVm not
p6342
I1
sVopposition parties
p6343
I1
sVthe society
p6344
I1
sVyour vote
p6345
I1
sVglobal economy
p6346
I6
sVpeople again
p6347
I1
sVdo better
p6348
I4
sVgunned down
p6349
I1
sVstudy programs
p6350
I1
sVthis before
p6351
I2
sVdifferent future
p6352
I1
sVbeing spent
p6353
I1
sVregular basis
p6354
I1
sVamerican people
p6355
I13
sVto end
p6356
I1
sVwere necessary
p6357
I1
sVneeds done
p6358
I1
sVfew years
p6359
I2
sVprisoners there
p6360
I1
sVtime passes
p6361
I1
sVappreciate that
p6362
I4
sVwe need
p6363
I4
sVlower rates
p6364
I1
sVmoving forward
p6365
I1
sVnever meet
p6366
I1
sVbiological weapons
p6367
I1
sVbush administration
p6368
I1
sVour military
p6369
I5
sVpoverty line
p6370
I2
sVand honestly
p6371
I1
sVdina titus
p6372
I1
sVstronger families
p6373
I1
sVlong time
p6374
I1
sValready have
p6375
I2
sVand comfort
p6376
I1
sVthings happened
p6377
I1
sVscale rapidly
p6378
I1
sVbut beyond
p6379
I1
sVto defend
p6380
I1
sVshort term
p6381
I1
sVgreat rarity
p6382
I1
sVmy plate
p6383
I1
sVgoing right
p6384
I1
sVpreexisting conditions
p6385
I2
sVsecurity benefits
p6386
I1
sVis limited
p6387
I1
sVthose decisions
p6388
I1
sVenforcing disproportionately
p6389
I1
sVour names
p6390
I1
sVthe xbox
p6391
I1
sVundocumented workers
p6392
I2
sVprudent way
p6393
I1
sVstop us
p6394
I2
sVin florida
p6395
I1
sVa deadline
p6396
I1
sVeconomic footing
p6397
I1
sVfinancial crisis
p6398
I5
sVin housing
p6399
I1
sVmilitary commission
p6400
I1
sVyou money
p6401
I1
sVtim spicer
p6402
I1
sVto market
p6403
I1
sV41 months
p6404
I2
sVboth and
p6405
I1
sVout assad
p6406
I1
sVbe smooth
p6407
I1
sVdifferent ideas
p6408
I1
sVwe seek
p6409
I1
sVtheir wounds
p6410
I1
sVmore gas
p6411
I1
sVpullman porters
p6412
I1
sVon farms
p6413
I1
sVtold them
p6414
I1
sVwaiting for
p6415
I1
sVexpectations here
p6416
I1
sVthat goal
p6417
I1
sVthese plans
p6418
I1
sVgoing on
p6419
I1
sVgovernment overreach
p6420
I1
sVbeat us
p6421
I1
sVour part
p6422
I2
sVbackground checks
p6423
I5
sVdifficult history
p6424
I1
sVand misinformation
p6425
I1
sVemployee plan
p6426
I1
sVoutdated ports
p6427
I1
sVhardship exemption
p6428
I1
sVdeployment invites
p6429
I1
sVmean it
p6430
I1
sVyour bills
p6431
I1
sVhis diploma
p6432
I1
sVmany neighborhoods
p6433
I1
sVto that
p6434
I1
sVevery event
p6435
I1
sVus all
p6436
I2
sVlittle water
p6437
I1
sVmore jobs
p6438
I5
sVassad regime
p6439
I1
sVjazmin perez
p6440
I1
sVour bones
p6441
I1
sVby war
p6442
I1
sVwiped out
p6443
I1
sVyour job
p6444
I1
sVsome lunch
p6445
I1
sVrepublican thing
p6446
I1
sVperson here
p6447
I1
sVclass americans
p6448
I1
sVlittle embarrassed
p6449
I1
sVhall meetings
p6450
I1
sVwhat happens
p6451
I1
sVgetting fixed
p6452
I1
sVamericans first
p6453
I1
sVarm criminals
p6454
I1
sVdecision lightly
p6455
I2
sVwashington dysfunction
p6456
I1
sVvery good
p6457
I1
sVnerve centers
p6458
I1
sVsavings yet
p6459
I1
sVarab world
p6460
I4
sVnoble life
p6461
I1
sVof school
p6462
I3
sVheavy lift
p6463
I1
sVdeveloped nations
p6464
I2
sVfew days
p6465
I1
sVsustain dreams
p6466
I1
sVthat choice
p6467
I1
sVmilitary strong
p6468
I1
sVto ask
p6469
I1
sVentrance music
p6470
I1
sVs hank
p6471
I1
sVto her
p6472
I1
sVin attendance
p6473
I1
sVeconomic recovery
p6474
I2
sVbeen affected
p6475
I1
sVtheir use
p6476
I1
sVpower plants
p6477
I1
sVtranquil time
p6478
I1
sVon results
p6479
I1
sVworld away
p6480
I1
sVs superstores
p6481
I1
sVan order
p6482
I1
sVor kosovo
p6483
I1
sVjail cell
p6484
I1
sVis open
p6485
I1
sVpositive direction
p6486
I1
sVnew tech
p6487
I1
sVof grace
p6488
I2
sVnon violence
p6489
I1
sVthe backend
p6490
I1
sVfleeting moment
p6491
I1
sVare democrat
p6492
I1
sVaudience congressman
p6493
I1
sVmy concerns
p6494
I1
sVfor magazines
p6495
I1
sVfrom him
p6496
I1
sVlife depends
p6497
I1
sVdeserves opportunity
p6498
I1
sVand me
p6499
I1
sVnecessarily strong
p6500
I1
sVinternational community
p6501
I2
sVhere somewhere
p6502
I1
sVboth sides
p6503
I1
sVregional differences
p6504
I1
sVa community
p6505
I1
sVgot started
p6506
I1
sVor damascus
p6507
I1
sVm making
p6508
I1
sVof violence
p6509
I1
sVamerican ingenuity
p6510
I1
sVs wrong
p6511
I1
sVin africa
p6512
I4
sVbuild things
p6513
I1
sVis terrible
p6514
I1
sVintervention later
p6515
I1
sVyour courage
p6516
I1
sVtheir side
p6517
I2
sVbin laden
p6518
I1
sVhis house
p6519
I1
sVof care
p6520
I1
sVthe economy
p6521
I8
sVpea nieto
p6522
I1
sVour strength
p6523
I1
sVright way
p6524
I2
sVlittle chant
p6525
I1
sVmass violence
p6526
I1
sVtowards violence
p6527
I1
sVextra pay
p6528
I1
sVspring hill
p6529
I1
sVis inefficient
p6530
I1
sVstay ahead
p6531
I1
sVall done
p6532
I1
sVrarely observed
p6533
I1
sVs life
p6534
I1
sVborder illegally
p6535
I1
sVthe stage
p6536
I1
sVown abuses
p6537
I1
sVrating systems
p6538
I1
sVnewport news
p6539
I1
sVgo investigate
p6540
I1
sVbipartisan support
p6541
I2
sVto school
p6542
I6
sVthis region
p6543
I1
sVdeficit neutral
p6544
I1
sVthe world
p6545
I47
sVresting place
p6546
I1
sVand bloodshed
p6547
I1
sVkey partners
p6548
I1
sVbriefly today
p6549
I1
sVthe russians
p6550
I1
sVthe nation
p6551
I2
sVroma texas
p6552
I1
sVand prejudice
p6553
I1
sVa man
p6554
I1
sVeducated teachers
p6555
I1
sVmake sense
p6556
I4
sVdeficit sensibly
p6557
I1
sVare feeling
p6558
I1
sVand misfortune
p6559
I1
sVserve you
p6560
I1
sVyour choice
p6561
I1
sVthe discussion
p6562
I1
sVhousing regulator
p6563
I1
sVits border
p6564
I1
sVthem down
p6565
I1
sVfinancial system
p6566
I5
sVdeath panels
p6567
I1
sVideas myself
p6568
I1
sVthis earth
p6569
I1
sVsandburg college
p6570
I1
sVfor failure
p6571
I2
sVjob search
p6572
I1
sVof hardship
p6573
I1
sVlast election
p6574
I1
sVget married
p6575
I1
sVproperly cooperating
p6576
I1
sVsigned yesterday
p6577
I1
sVof america
p6578
I38
sVto tarp
p6579
I2
sVfingers crossed
p6580
I1
sVsees it
p6581
I1
sVimportant changes
p6582
I1
sVhardened cynics
p6583
I1
sVin evidence
p6584
I1
sVtheir government
p6585
I1
sVfederal government
p6586
I1
sVlike west
p6587
I2
sVgrow weary
p6588
I1
sVpull through
p6589
I1
sVpoison gas
p6590
I2
sVpolitical agenda
p6591
I1
sVand king
p6592
I1
sVhelping students
p6593
I1
sVever gave
p6594
I1
sVtheir savings
p6595
I4
sVsaying this
p6596
I1
sVthe flowers
p6597
I1
sVmichelle too
p6598
I1
sVthis nation
p6599
I1
sVthe deal
p6600
I1
sVtech economy
p6601
I4
sVso chaotic
p6602
I1
sVstudent debt
p6603
I1
sVhuman endeavor
p6604
I1
sVgainfully employed
p6605
I1
sVthe country
p6606
I19
sVtough time
p6607
I1
sVand respect
p6608
I1
sVtheir faith
p6609
I1
sVthese rebates
p6610
I1
sVtax reform
p6611
I2
sVmutual respect
p6612
I1
sVgets excited
p6613
I1
sVof occupation
p6614
I1
sVleads us
p6615
I1
sVdick morris
p6616
I1
sVs leland
p6617
I1
sVultimate sacrifice
p6618
I1
sVhappens again
p6619
I1
sVbeing outgunned
p6620
I1
sVthink so
p6621
I2
sVteaching profession
p6622
I1
sVeconomics books
p6623
I1
sVgo inside
p6624
I1
sVbit more
p6625
I1
sVget it
p6626
I2
sVexplain why
p6627
I2
sVthese questions
p6628
I1
sVnow ending
p6629
I1
sVthe end
p6630
I1
sVyou labor
p6631
I1
sVben bernanke
p6632
I1
sVtalked to
p6633
I1
sVleave with
p6634
I1
sVmore expensive
p6635
I1
sVfolks here
p6636
I1
sVlung disease
p6637
I1
sVcoming in
p6638
I3
sVor insurance
p6639
I1
sVthe uniform
p6640
I1
sVdecent living
p6641
I4
sVequal chance
p6642
I1
sVnuclear weapons
p6643
I3
sVfly aggressively
p6644
I1
sVin tanzania
p6645
I1
sVdiplomacy fails
p6646
I1
sVdecade out
p6647
I1
sVblind eye
p6648
I1
sVto speak
p6649
I2
sVpariser platz
p6650
I1
sVright there
p6651
I6
sVa home
p6652
I4
sVafford them
p6653
I1
sVinsurance industry
p6654
I2
sVquality education
p6655
I1
sVof conduct
p6656
I1
sVs needed
p6657
I1
sVcoalition forces
p6658
I1
sVdebt ceiling
p6659
I1
sVsettling for
p6660
I1
sVthe same
p6661
I6
sVwe passed
p6662
I1
sVsomething important
p6663
I1
sVremember that
p6664
I1
sVtheir grasp
p6665
I1
sVfrom this
p6666
I1
sVpages long
p6667
I1
sVa foothold
p6668
I1
sVof complacency
p6669
I1
sVmy focus
p6670
I1
sVcan work
p6671
I2
sVthe people
p6672
I5
sVit hurts
p6673
I1
sVin springfield
p6674
I1
sVefforts succeeded
p6675
I1
sVa stronger
p6676
I1
sVgo through
p6677
I1
sVof jerusalem
p6678
I1
sVjob market
p6679
I2
sVour shield
p6680
I1
sVits future
p6681
I2
sVviolent crime
p6682
I1
sVprep school
p6683
I1
sVthis afternoon
p6684
I2
sV17 pages
p6685
I1
sVhis doctorate
p6686
I1
sVand development
p6687
I1
sVcauses pain
p6688
I1
sVabove plan
p6689
I1
sVevery detainee
p6690
I1
sVof morsi
p6691
I2
sVsummer jobs
p6692
I1
sVcoverage status
p6693
I1
sVin me
p6694
I2
sVloves michelle
p6695
I1
sVreaching out
p6696
I1
sVenergy consumption
p6697
I1
sVnext generation
p6698
I2
sVof cutting
p6699
I1
sVentire families
p6700
I1
sVand schools
p6701
I1
sVspace race
p6702
I1
sVdepend on
p6703
I2
sVmost powerful
p6704
I2
sVworking poor
p6705
I1
sVa right
p6706
I1
sVhealth treatment
p6707
I1
sVbitter fate
p6708
I1
sVegg roll
p6709
I1
sVworking together
p6710
I1
sVto deliver
p6711
I1
sVbeside us
p6712
I1
sVvenerable institution
p6713
I1
sVimperfect world
p6714
I1
sVon division
p6715
I1
sVo brien
p6716
I1
sVin senegal
p6717
I1
sVconventional fashion
p6718
I1
sVand militias
p6719
I1
sVmany more
p6720
I1
sVthis post
p6721
I1
sVthe law
p6722
I6
sVhundred workers
p6723
I1
sVand running
p6724
I1
sVbuild consensus
p6725
I1
sVbig thing
p6726
I1
sVrise together
p6727
I1
sVand traffickers
p6728
I1
sVlittle bit
p6729
I4
sVsome risks
p6730
I1
sVyour solution
p6731
I1
sVbarely budged
p6732
I1
sValready spent
p6733
I1
sVgood wages
p6734
I1
sVtheir corner
p6735
I1
sVlarger cause
p6736
I1
sVthose years
p6737
I1
sVthis congress
p6738
I1
sVour own
p6739
I3
sVlie ahead
p6740
I2
sVof benghazi
p6741
I1
sVfirst job
p6742
I2
sVwithout it
p6743
I1
sVfight for
p6744
I1
sVbe heard
p6745
I1
sVgot you
p6746
I1
sVpast summer
p6747
I1
sVin uniform
p6748
I1
sVtheir affiliates
p6749
I1
sVof others
p6750
I2
sVfinding jobs
p6751
I1
sVentire lives
p6752
I1
sVcentury ago
p6753
I3
sVoutstanding host
p6754
I1
sVfuture demands
p6755
I1
sVgood friends
p6756
I1
sVimprove it
p6757
I1
sVfishing barbecue
p6758
I1
sVown future
p6759
I2
sVbe intimidated
p6760
I1
sVstrongly consider
p6761
I1
sVtheir buck
p6762
I1
sVa woman
p6763
I1
sVsherrod brown
p6764
I1
sVour teams
p6765
I1
sVthis country
p6766
I24
sVjust statistics
p6767
I1
sVour nation
p6768
I2
sVa prisoner
p6769
I1
sVunsustainable burden
p6770
I1
sVair strikes
p6771
I1
sVsome changes
p6772
I1
sVtoo seriously
p6773
I1
sVideological demands
p6774
I2
sVstudentaid gov
p6775
I2
sVtheir business
p6776
I1
sVcongressional inaction
p6777
I1
sVthe facts
p6778
I5
sVelrina go
p6779
I1
sVfor that
p6780
I6
sVyour friends
p6781
I2
sVs something
p6782
I1
sVbuilding castles
p6783
I1
sVhere legally
p6784
I2
sVan agreement
p6785
I1
sVit should
p6786
I2
sVon earth
p6787
I10
sVchemical weapons
p6788
I5
sVaccept that
p6789
I1
sVon gas
p6790
I1
sVto spread
p6791
I1
sVour power
p6792
I3
sVbipartisan basis
p6793
I1
sVstated goal
p6794
I1
sVnew treatments
p6795
I1
sVthat danger
p6796
I1
sVit was
p6797
I1
sVget rich
p6798
I1
sVlearn english
p6799
I1
sVget approved
p6800
I1
sVbargain collectively
p6801
I1
sVtough politics
p6802
I1
sVinternational standing
p6803
I1
sVa mile
p6804
I1
sVget ahead
p6805
I6
sVgovernment shutdown
p6806
I2
sVfor you
p6807
I7
sVour families
p6808
I2
sVspecial place
p6809
I1
sVthe ball
p6810
I2
sV000 people
p6811
I1
sVnuclear arms
p6812
I1
sVsome plans
p6813
I1
sVthough honey
p6814
I1
sVyou love
p6815
I1
sVcompetitive edge
p6816
I1
sVhealth insurance
p6817
I11
sVdangerous places
p6818
I1
sVhis best
p6819
I1
sVmuch violence
p6820
I1
sVyou are
p6821
I1
sVany good
p6822
I1
sVmiddle class
p6823
I16
sVthe workforce
p6824
I1
sVsecure israel
p6825
I1
sVmoved on
p6826
I1
sVthe pressure
p6827
I1
sVdown obamacare
p6828
I1
sVare fallible
p6829
I1
sVand aurora
p6830
I1
sVfurther attacks
p6831
I1
sVall proud
p6832
I1
sVyour business
p6833
I3
sVsolution here
p6834
I1
sVcould close
p6835
I1
sVpay for
p6836
I3
sVour jobs
p6837
I1
sVlong term
p6838
I3
sVfrequent sacrifice
p6839
I1
sVprove it
p6840
I1
sVthe customer
p6841
I1
sVand syria
p6842
I2
sVhello brooklyn
p6843
I1
sVamerica again
p6844
I1
sVto me
p6845
I3
sVtheir budgets
p6846
I1
sVact generally
p6847
I1
sVa few
p6848
I3
sVby marines
p6849
I1
sVsuspicious activities
p6850
I1
sVunion address
p6851
I2
sVthem healthier
p6852
I1
sVfolks refinance
p6853
I1
sVextremely valuable
p6854
I1
sVis one
p6855
I1
sVcomfort you
p6856
I1
sVthe lies
p6857
I1
sVinflicting harm
p6858
I1
sVor nursing
p6859
I1
sVthe few
p6860
I2
sVcontrol systems
p6861
I1
sVus great
p6862
I1
sVgoodbye beautiful
p6863
I1
sVand united
p6864
I1
sVquick process
p6865
I1
sVt delay
p6866
I1
sVdifferent ways
p6867
I1
sVsense steps
p6868
I1
sVrecession began
p6869
I1
sVher coverage
p6870
I1
sVdifferent god
p6871
I1
sVs policeman
p6872
I1
sVour economy
p6873
I15
sVsecond term
p6874
I1
sVa secret
p6875
I1
sVusing them
p6876
I1
sVis necessary
p6877
I2
sVof security
p6878
I2
sVthey deserve
p6879
I6
sVis rewarded
p6880
I1
sVof apartheid
p6881
I1
sVour infrastructure
p6882
I3
sVviolent jihad
p6883
I1
sVdeadly night
p6884
I1
sVown family
p6885
I1
sVit needed
p6886
I1
sVleft town
p6887
I1
sVthis fight
p6888
I1
sVof vermont
p6889
I1
sVand allies
p6890
I1
sVreal world
p6891
I1
sVof tomorrows
p6892
I1
sVjanice baker
p6893
I1
sVwasting money
p6894
I1
sVcan reconcile
p6895
I1
sVin decades
p6896
I4
sVversus them
p6897
I1
sVa cut
p6898
I1
sVdoing today
p6899
I1
sVevery year
p6900
I2
sVmadam mayor
p6901
I1
sVfall behind
p6902
I1
sVtwo things
p6903
I1
sVeat better
p6904
I1
sVarmed forces
p6905
I1
sVon time
p6906
I3
sVgets sick
p6907
I1
sVthousands more
p6908
I2
sVattitude prevailed
p6909
I1
sVamerican technology
p6910
I1
sVuse it
p6911
I2
sVchester davenport
p6912
I1
sVwages flatlined
p6913
I1
sVgotten worse
p6914
I1
sVa room
p6915
I1
sVwrong cycle
p6916
I1
sVthey share
p6917
I1
sVso well
p6918
I1
sVraise families
p6919
I1
sVafrican growth
p6920
I1
sVyour questions
p6921
I2
sVto recklessness
p6922
I1
sVs good
p6923
I1
sVis evolving
p6924
I1
sVmy desk
p6925
I1
sVto raise
p6926
I1
sV80 billion
p6927
I1
sV26 000
p6928
I1
sVhand in
p6929
I1
sVdone that
p6930
I1
sVprogress stalled
p6931
I1
sVof posterity
p6932
I1
sVever experienced
p6933
I1
sVolder brother
p6934
I2
sVa meeting
p6935
I3
sVindividual responsibilities
p6936
I1
sVfrustrated sometimes
p6937
I1
sVgas permits
p6938
I1
sVand republicans
p6939
I1
sVyour future
p6940
I1
sVlagging behind
p6941
I1
sVlove conan
p6942
I1
sVyou meddling
p6943
I1
sVpolicy insights
p6944
I1
sVnegative ads
p6945
I1
sVwell right
p6946
I1
sVsaying amen
p6947
I1
sVcommon challenges
p6948
I1
sVconsistent improvement
p6949
I1
sVshady lenders
p6950
I1
sVto america
p6951
I3
sVit means
p6952
I1
sVon this
p6953
I1
sVfront end
p6954
I1
sVfor opportunity
p6955
I1
sVand morality
p6956
I1
sVon cobra
p6957
I1
sVbefore party
p6958
I1
sVhuge bonuses
p6959
I1
sVlunch counters
p6960
I1
sVgo away
p6961
I1
sVor darkness
p6962
I1
sVrural iowa
p6963
I1
sVto negotiate
p6964
I1
sVdaily round
p6965
I1
sVentire situation
p6966
I1
sVmy wife
p6967
I1
sVto conflict
p6968
I1
sVavoid risk
p6969
I1
sVbe closed
p6970
I2
sVre marching
p6971
I1
sVfundamentally unsound
p6972
I1
sVwill listen
p6973
I2
sVyour leadership
p6974
I1
sVnot good
p6975
I1
sVlaw school
p6976
I3
sVthe truth
p6977
I3
sVthe money
p6978
I1
sVus boston
p6979
I1
sVenforcement lightly
p6980
I1
sVthat excitement
p6981
I1
sVone day
p6982
I1
sVthose out
p6983
I1
sVthe benchmarks
p6984
I1
sVlegal fashion
p6985
I1
sVnot clear
p6986
I1
sVthe workplace
p6987
I1
sVimmigration reform
p6988
I7
sVsave money
p6989
I1
sVand yahoo
p6990
I1
sVincludes defense
p6991
I1
sVto build
p6992
I1
sVgoing forward
p6993
I1
sVask questions
p6994
I1
sVeach session
p6995
I1
sVor afghanistan
p6996
I1
sVginni rometty
p6997
I1
sVour citizens
p6998
I4
sVknow this
p6999
I3
sVand economics
p7000
I1
sVmass destruction
p7001
I3
sVit harder
p7002
I1
sVlike you
p7003
I3
sVdoing them
p7004
I1
sVmoral compass
p7005
I1
sVbefore it
p7006
I1
sVand incomes
p7007
I1
sVor deodorant
p7008
I1
sVbe honest
p7009
I1
sVhis parents
p7010
I1
sVelrina brits
p7011
I1
sVis working
p7012
I2
sVfrom testifying
p7013
I1
sVabout humanity
p7014
I1
sVkids safe
p7015
I1
sVfree generation
p7016
I2
sVare ignored
p7017
I1
sVt mind
p7018
I2
sVcomplex undertaking
p7019
I1
sVis increasing
p7020
I1
sVs terrific
p7021
I1
sVin need
p7022
I2
sVour fate
p7023
I1
sVand taxpayers
p7024
I1
sVgetting there
p7025
I1
sVfully completed
p7026
I1
sVa budget
p7027
I1
sVtorn country
p7028
I1
sVgreat peril
p7029
I1
sVthings differently
p7030
I1
sVinvest
p7031
I1
sVbehind me
p7032
I1
sVa reason
p7033
I1
sVto students
p7034
I1
sVcomes next
p7035
I2
sVshould be
p7036
I2
sVbest skills
p7037
I1
sVordinary people
p7038
I1
sVwere amazed
p7039
I1
sVof individuals
p7040
I1
sVvalues plummeted
p7041
I1
sVto congress
p7042
I3
sVfewer deployments
p7043
I1
sVour communities
p7044
I3
sVprotect consumers
p7045
I1
sVover time
p7046
I3
sVclimb them
p7047
I2
sVchemistry classes
p7048
I1
sVfor protection
p7049
I1
sVof schedule
p7050
I1
sVacademy history
p7051
I1
sVhelp families
p7052
I1
sVof it
p7053
I5
sVprogram
p7054
I1
sVan instant
p7055
I1
sVleetsdale pennsylvania
p7056
I1
sVnever forget
p7057
I1
sVbig papi
p7058
I1
sVof stuff
p7059
I1
sVthe summer
p7060
I1
sVforward to
p7061
I1
sVtheir differences
p7062
I1
sVour best
p7063
I1
sVprevent abuse
p7064
I1
sVour environment
p7065
I1
sVoctober 1st
p7066
I1
sVmore responsibility
p7067
I1
sVwill work
p7068
I1
sVkeep going
p7069
I2
sVwhat is
p7070
I1
sVmilitary unprepared
p7071
I1
sVlose points
p7072
I1
sVdollar counts
p7073
I1
sVand wiser
p7074
I1
sValso forgiveness
p7075
I1
sVof congress
p7076
I3
sVour schools
p7077
I2
sVon welfare
p7078
I2
sVhave that
p7079
I1
sVfeeling it
p7080
I1
sVshaky time
p7081
I1
sVpacking up
p7082
I1
sVanother step
p7083
I1
sVof nonviolence
p7084
I1
sVowners agree
p7085
I1
sVabout frederick
p7086
I1
sVyour loss
p7087
I2
sVbe told
p7088
I1
sVof issues
p7089
I2
sVbudget imbalance
p7090
I1
sVyou myrna
p7091
I1
sVs future
p7092
I5
sVgreenville
p7093
I1
sVwas pregnant
p7094
I1
sVdidn t
p7095
I1
sVto regulation
p7096
I1
sVfor decades
p7097
I7
sVopen again
p7098
I1
sVhospital floor
p7099
I1
sVwith mexico
p7100
I1
sVcar loans
p7101
I1
sVrental housing
p7102
I2
sVnuclear energy
p7103
I1
sVfor everybody
p7104
I6
sVwar ii
p7105
I1
sVs companies
p7106
I1
sVthe government
p7107
I1
sVdoing this
p7108
I2
sVwas shattered
p7109
I1
sVto wireless
p7110
I1
sVwere loved
p7111
I1
sVtheir homes
p7112
I2
sVs citizenship
p7113
I1
sVand storytelling
p7114
I1
sVa stranger
p7115
I1
sVvulnerable kids
p7116
I1
sVtoday is
p7117
I1
sVat all
p7118
I3
sVrequires vigilance
p7119
I1
sVgood material
p7120
I1
sVam here
p7121
I1
sVas healthy
p7122
I1
sVin cities
p7123
I1
sVof time
p7124
I1
sVof armies
p7125
I1
sVmore risks
p7126
I1
sVpolitical posturing
p7127
I1
sVstopping there
p7128
I1
sVof fire
p7129
I1
sVto resolve
p7130
I1
sVyour neighborhood
p7131
I1
sVit out
p7132
I2
sVs keeper
p7133
I1
sVto americans
p7134
I1
sVyour schools
p7135
I1
sVi believe
p7136
I2
sVcold war
p7137
I3
sVsame mistakes
p7138
I1
sVus healthier
p7139
I1
sV250 percent
p7140
I1
sVworking families
p7141
I6
sVdoes work
p7142
I1
sVtruly safe
p7143
I1
sVnew assignment
p7144
I1
sVthere campaigning
p7145
I1
sVgood ideas
p7146
I2
sVtheir dreams
p7147
I3
sVone another
p7148
I4
sVto prosper
p7149
I1
sVand afraid
p7150
I1
sVthat outcome
p7151
I1
sVstart exporting
p7152
I1
sVrepublican governors
p7153
I1
sVerode further
p7154
I1
sVbetter off
p7155
I1
sVjewish state
p7156
I2
sVjust me
p7157
I1
sVrecent tragedies
p7158
I1
sVyour schoolwork
p7159
I1
sVstill needed
p7160
I1
sVin america
p7161
I22
sVof deportation
p7162
I1
sVthis issue
p7163
I4
sVtwo golds
p7164
I1
sVa deadbeat
p7165
I2
sVgiving up
p7166
I2
sVon amazon
p7167
I1
sVyou inherit
p7168
I1
sVdiplomatic path
p7169
I1
sVthe bank
p7170
I1
sValready behind
p7171
I1
sVtaking action
p7172
I1
sVto others
p7173
I1
sVme hopeful
p7174
I1
sVa surprise
p7175
I1
sVi do
p7176
I1
sVeveryplace else
p7177
I1
sVto spend
p7178
I1
sVyour quality
p7179
I1
sVus special
p7180
I1
sVinto reverse
p7181
I1
sVon yourself
p7182
I1
sVbeen killed
p7183
I1
sVtold no
p7184
I1
sVokay
p7185
I3
sVpolitical disagreement
p7186
I1
sVto harden
p7187
I1
sVt right
p7188
I1
sVlend again
p7189
I1
sVbad choices
p7190
I1
sVunwarranted compensation
p7191
I2
sVother americans
p7192
I1
sVtheir aspirations
p7193
I1
sVlittle lady
p7194
I1
sVthe border
p7195
I3
sVthis debate
p7196
I1
sVit matters
p7197
I2
sVhis family
p7198
I1
sVlevel ever
p7199
I2
sVin alabama
p7200
I2
sVbowles commission
p7201
I1
sV20 misses
p7202
I1
sVnot right
p7203
I3
sVyour patron
p7204
I1
sVbe expected
p7205
I1
sVin demand
p7206
I1
sVbackground check
p7207
I1
sVseemed impossible
p7208
I1
sVagainst homelessness
p7209
I1
sVhis district
p7210
I1
sVjanice s
p7211
I1
sVhouse correspondents
p7212
I1
sVthese challenges
p7213
I1
sVbe voting
p7214
I1
sVtenure here
p7215
I1
sVother businesses
p7216
I1
sVthere left
p7217
I1
sVdefend itself
p7218
I1
sVhello chicago
p7219
I1
sVsteps forward
p7220
I1
sVunending chaos
p7221
I1
sVyou denver
p7222
I1
sVmore casualties
p7223
I1
sVto face
p7224
I1
sVseveral years
p7225
I1
sVour memory
p7226
I1
sVmy plan
p7227
I1
sVcommon security
p7228
I1
sVs army
p7229
I1
sVsuccess story
p7230
I1
sVsomebody else
p7231
I1
sVpolitical path
p7232
I1
sVand towns
p7233
I1
sVgo titans
p7234
I1
sVmyself though
p7235
I1
sVof africa
p7236
I1
sVlooking in
p7237
I1
sVcountry home
p7238
I1
sVimpressive group
p7239
I1
sVemphasize chip
p7240
I1
sVbetter wages
p7241
I1
sVus down
p7242
I1
sVmy presidency
p7243
I5
sVbasic order
p7244
I1
sVsouthern nevada
p7245
I1
sVcare programs
p7246
I1
sVcome quickly
p7247
I1
sVart airports
p7248
I1
sVthe call
p7249
I1
sVa whole
p7250
I1
sVget shot
p7251
I1
sVto you
p7252
I8
sVremain undimmed
p7253
I1
sVour finances
p7254
I1
sVme back
p7255
I1
sVhad begun
p7256
I1
sVof this
p7257
I2
sVthose supertankers
p7258
I1
sVcan grow
p7259
I1
sVfor 136
p7260
I1
sVout hope
p7261
I1
sVthings work
p7262
I1
sVnot acceptable
p7263
I1
sVhis introduction
p7264
I1
sVmy children
p7265
I1
sVtraditional lending
p7266
I2
sVby terrorists
p7267
I1
sVworth living
p7268
I1
sVlasting virtue
p7269
I1
sVwe do
p7270
I6
sVburgeoning industries
p7271
I1
sVin austin
p7272
I2
sVbe available
p7273
I1
sVby diego
p7274
I1
sVthey live
p7275
I3
sVonce were
p7276
I1
sVof israel
p7277
I2
sVany trouble
p7278
I1
sVpalestinian people
p7279
I1
sVtake place
p7280
I1
sVtheir ideas
p7281
I2
sVmuch everybody
p7282
I10
sVbeen stopped
p7283
I1
sVreach higher
p7284
I1
sVbipartisan bill
p7285
I1
sVyou honey
p7286
I1
sVt matter
p7287
I3
sVunited germany
p7288
I1
sVhouse website
p7289
I1
sVpublic opinion
p7290
I1
sVclaim it
p7291
I1
sVfrom here
p7292
I3
sVhonest though
p7293
I1
sVaround us
p7294
I1
sVtheir kids
p7295
I2
sVown time
p7296
I1
sVand maim
p7297
I1
sVhis dreams
p7298
I1
sVuse force
p7299
I1
sVhappens often
p7300
I1
sVcrisis emerges
p7301
I1
sVdifficult days
p7302
I2
sVgreat dedication
p7303
I1
sVto play
p7304
I2
sVwas official
p7305
I1
sVresolve unwavering
p7306
I1
sVroutine vote
p7307
I1
sVunderstand that
p7308
I2
sVour focus
p7309
I3
sVjohn dingell
p7310
I1
sVincluding women
p7311
I1
sVthis law
p7312
I4
sVbenefit package
p7313
I2
sVhome tomorrow
p7314
I1
sVgrowth industry
p7315
I1
sVlosing hope
p7316
I1
sVchoose friendship
p7317
I1
sVsorry byron
p7318
I1
sVh w
p7319
I1
sVher name
p7320
I1
sValso pause
p7321
I1
sVfor politicians
p7322
I1
sVbe good
p7323
I1
sVmore security
p7324
I1
sVtune in
p7325
I1
sVrequire congress
p7326
I2
sVgun owners
p7327
I1
sVafghan responsibility
p7328
I1
sVuse them
p7329
I1
sV50th reunion
p7330
I1
sVillegal immigrants
p7331
I1
sVat libya
p7332
I1
sVus hungry
p7333
I1
sValready made
p7334
I2
sVthis institution
p7335
I2
sVis stillborn
p7336
I1
sVdepartment store
p7337
I1
sVlocate here
p7338
I1
sVstraight parents
p7339
I1
sVgood jobs
p7340
I5
sVma am
p7341
I2
sVact means
p7342
I1
sVon race
p7343
I1
sVdifferent result
p7344
I1
sVhe right
p7345
I1
sVof lincoln
p7346
I1
sVclass jobs
p7347
I4
sVas senator
p7348
I1
sVdo business
p7349
I1
sVone himself
p7350
I1
sVfix this
p7351
I2
sVa god
p7352
I1
sVglobal security
p7353
I2
sVnothing
p7354
I1
sVwonderful introduction
p7355
I3
sVreform bill
p7356
I1
sVits camps
p7357
I1
sVdoubling it
p7358
I1
sVcountry overseas
p7359
I1
sVtheir plans
p7360
I1
sVearned wisdom
p7361
I1
sVfool ourselves
p7362
I1
sVour streets
p7363
I1
sVbeen higher
p7364
I2
sVsinging today
p7365
I1
sVyour care
p7366
I1
sVget faint
p7367
I1
sVan accident
p7368
I1
sVeasy options
p7369
I1
sVcame together
p7370
I1
sVlower it
p7371
I1
sVmoney back
p7372
I1
sVinnovation institute
p7373
I1
sVyour lives
p7374
I1
sVtheir communities
p7375
I2
sVto investigate
p7376
I1
sVthis fall
p7377
I3
sVturns elsewhere
p7378
I1
sVbeen partisan
p7379
I1
sVour workers
p7380
I1
sVpart too
p7381
I1
sVfewer consumers
p7382
I1
sVbetter shot
p7383
I1
sVpeople want
p7384
I1
sVget up
p7385
I1
sVto anybody
p7386
I1
sVfirst home
p7387
I2
sVits success
p7388
I1
sVprivate preschool
p7389
I1
sVfor colleges
p7390
I1
sVmakes right
p7391
I1
sVnot happen
p7392
I1
sVto satan
p7393
I1
sVnot here
p7394
I2
sVgood risk
p7395
I1
sVattention now
p7396
I1
sVmany blessings
p7397
I1
sVbounced back
p7398
I3
sVbe okay
p7399
I1
sVcompany made
p7400
I1
sVthe attack
p7401
I1
sVthe next
p7402
I2
sVs minor
p7403
I1
sVequal pay
p7404
I1
sVcare plan
p7405
I1
sVnew home
p7406
I1
sVmultiple deployments
p7407
I1
sVhis home
p7408
I1
sVhouse bill
p7409
I1
sVworks too
p7410
I1
sVof allegiance
p7411
I1
sVevery dollar
p7412
I1
sVproduction up
p7413
I1
sVand infrastructure
p7414
I1
sValways smooth
p7415
I1
sVthey should
p7416
I1
sVfrom them
p7417
I4
sVsix hours
p7418
I1
sVmeet them
p7419
I1
sVsome relief
p7420
I1
sVegyptian people
p7421
I2
sVdo well
p7422
I1
sVhome behind
p7423
I1
sVstop everybody
p7424
I1
sVjoe garcia
p7425
I1
sVtheir tormentors
p7426
I1
sVbasic needs
p7427
I1
sVall mankind
p7428
I2
sVto afghanistan
p7429
I2
sVless productive
p7430
I1
sVban them
p7431
I1
sVdescribe me
p7432
I1
sVin there
p7433
I3
sVthis instance
p7434
I1
sVof discrimination
p7435
I1
sVprosecute terrorists
p7436
I1
sVon costs
p7437
I1
sVmail in
p7438
I1
sVtheir citizens
p7439
I1
sVto be
p7440
I8
sVon enforcement
p7441
I1
sVresearch centers
p7442
I1
sVbeen blocked
p7443
I1
sVdo now
p7444
I1
sVafter year
p7445
I1
sVof farmland
p7446
I1
sVa church
p7447
I1
sVhuge burden
p7448
I1
sVaverage american
p7449
I1
sVunderstands this
p7450
I1
sVthat engine
p7451
I1
sVdisaster relief
p7452
I2
sVlast question
p7453
I1
sVstarts today
p7454
I1
sVthis treaty
p7455
I1
sVbetter place
p7456
I1
sVjimmy fallon
p7457
I1
sVwe must
p7458
I1
sVbigger commitment
p7459
I1
sVas americans
p7460
I2
sVobama library
p7461
I1
sVthe cause
p7462
I1
sVyour generation
p7463
I1
sVof germany
p7464
I1
sVexecution efficient
p7465
I1
sVthe ages
p7466
I2
sVbear here
p7467
I1
sVprevent terror
p7468
I1
sVbiggest asset
p7469
I1
sVcentury economy
p7470
I3
sVoval office
p7471
I2
sVwas too
p7472
I1
sVfilled morning
p7473
I1
sVof war
p7474
I9
sVsexual orientation
p7475
I1
sVjobs obsolete
p7476
I1
sVnot alone
p7477
I4
sVto mexico
p7478
I1
sVown life
p7479
I1
sVand dry
p7480
I1
sVthat front
p7481
I2
sVhopeful immigrants
p7482
I1
sVpresident right
p7483
I1
sVfirst man
p7484
I1
sVmarginalize extremists
p7485
I1
sVfine print
p7486
I1
sVfreak coincidence
p7487
I1
sVquarter century
p7488
I1
sVhave grieved
p7489
I1
sVfor myself
p7490
I1
sVbeing rejected
p7491
I1
sVout loans
p7492
I1
sVyou promised
p7493
I1
sVis unique
p7494
I1
sVpresident putin
p7495
I1
sVstatus quo
p7496
I2
sVprisoners already
p7497
I1
sVfought for
p7498
I2
sVrate increases
p7499
I1
sVaudience booo
p7500
I1
sVdiesel mechanic
p7501
I1
sVoppressors alike
p7502
I1
sVfor them
p7503
I3
sVfarther away
p7504
I1
sVbetter deal
p7505
I2
sVadditional dollars
p7506
I1
sVagainst it
p7507
I1
sVthe answers
p7508
I2
sVsolar power
p7509
I3
sVanything less
p7510
I1
sVare facts
p7511
I3
sVthe pacific
p7512
I1
sVhurting people
p7513
I2
sVstronger america
p7514
I1
sVhuman aspirations
p7515
I1
sVof egypt
p7516
I1
sVnot real
p7517
I1
sVneeds to
p7518
I1
sVwinners here
p7519
I1
sVa professional
p7520
I1
sVthat means
p7521
I1
sVgulf war
p7522
I1
sVand cheaper
p7523
I1
sVwere doing
p7524
I1
sVuntapped potential
p7525
I1
sVour strategy
p7526
I1
sVwere immigrants
p7527
I1
sVyour life
p7528
I1
sVit right
p7529
I1
sVthe turf
p7530
I1
sVin particular
p7531
I1
sVa betrayal
p7532
I1
sVchip reid
p7533
I1
sVto buy
p7534
I1
sVoutstanding service
p7535
I1
sVyour children
p7536
I1
sVand dignity
p7537
I2
sVto chicago
p7538
I1
sVamazing work
p7539
I1
sVthe way
p7540
I5
sVthe punch
p7541
I1
sVof values
p7542
I1
sVhuman condition
p7543
I1
sVthe war
p7544
I2
sVgood insurance
p7545
I1
sVaddress it
p7546
I2
sVpolitical reasons
p7547
I1
sVdown earlier
p7548
I1
sVnobody can
p7549
I1
sVand suffering
p7550
I1
sVbold action
p7551
I2
sVnot babysitting
p7552
I1
sVwhy not
p7553
I1
sVof applause
p7554
I14
sVcore interests
p7555
I1
sVpretty bad
p7556
I1
sVis important
p7557
I2
sVof freedom
p7558
I1
sVagainst something
p7559
I1
sVrose garden
p7560
I1
sVscientific discovery
p7561
I1
sVnational pride
p7562
I1
sVimmigrate anywhere
p7563
I1
sVll see
p7564
I1
sVyour back
p7565
I1
sVand iran
p7566
I1
sVare endangered
p7567
I1
sVafford delay
p7568
I1
sVare gone
p7569
I1
sVthis happen
p7570
I4
sVmove ahead
p7571
I1
sVgrow stronger
p7572
I1
sVin you
p7573
I1
sVwomen lived
p7574
I1
sVbank bailout
p7575
I1
sVand iraq
p7576
I2
sVconfident about
p7577
I1
sVbroader deal
p7578
I1
sVover again
p7579
I1
sVgood childcare
p7580
I1
sVgreat depression
p7581
I3
sVso much
p7582
I12
sVthis city
p7583
I1
sVstarted changing
p7584
I1
sVto rent
p7585
I1
sVopen door
p7586
I1
sVyour vision
p7587
I1
sVstart withering
p7588
I1
sVor daughter
p7589
I1
sVagain twice
p7590
I1
sVbe unleashed
p7591
I1
sVdonald kaberuka
p7592
I1
sVhilda solis
p7593
I2
sVtheir efforts
p7594
I2
sVenormous risks
p7595
I1
sVthe crisis
p7596
I1
sVyou joe
p7597
I1
sVand parents
p7598
I1
sVthe moon
p7599
I2
sVthe flames
p7600
I1
sVre praying
p7601
I1
sVbe clear
p7602
I1
sVtwo peoples
p7603
I1
sVwould expect
p7604
I1
sVyou need
p7605
I1
sVafford insurance
p7606
I1
sVwhat works
p7607
I4
sVbetty mccullough
p7608
I1
sVkenya airways
p7609
I1
sVsingle year
p7610
I1
sVwill fix
p7611
I1
sVbe perfect
p7612
I1
sVworkers well
p7613
I1
sVpeople agree
p7614
I1
sVscience fairs
p7615
I1
sVgood education
p7616
I3
sVsimilar story
p7617
I1
sVbetween nations
p7618
I1
sVs required
p7619
I1
sVtheir mission
p7620
I1
sVve done
p7621
I1
sVand bangladesh
p7622
I1
sVneighbors too
p7623
I1
sVyour example
p7624
I3
sVtoday s
p7625
I1
sVyour responsibilities
p7626
I1
sVtheir representatives
p7627
I1
sVis stronger
p7628
I1
sVfully implement
p7629
I1
sVsome republicans
p7630
I1
sVfor dinner
p7631
I1
sVhistory bends
p7632
I1
sVan aggressor
p7633
I1
sVall posterity
p7634
I1
sVis right
p7635
I1
sVour arms
p7636
I2
sVgo downstairs
p7637
I1
sVamerican jobs
p7638
I1
sVan option
p7639
I1
sVpays off
p7640
I1
sVsurrounding countries
p7641
I1
sVwas enormous
p7642
I1
sVare murdered
p7643
I1
sVhere want
p7644
I1
sVhas begun
p7645
I1
sVleft behind
p7646
I2
sVdynamic country
p7647
I1
sVis about
p7648
I8
sVthis outrage
p7649
I1
sVour story
p7650
I1
sVlife with
p7651
I1
sVsacred earth
p7652
I1
sVits citizens
p7653
I2
sVnew initiative
p7654
I1
sVnormal height
p7655
I1
sV50 years
p7656
I6
sVand hire
p7657
I1
sVseniors already
p7658
I1
sVamerica different
p7659
I1
sVbreaking point
p7660
I1
sVa sunday
p7661
I1
sVit does
p7662
I1
sVdo so
p7663
I2
sVour future
p7664
I7
sVit lasts
p7665
I1
sVs development
p7666
I1
sVon hold
p7667
I2
sVfree to
p7668
I1
sVguide them
p7669
I1
sVwas great
p7670
I1
sVsecure retirement
p7671
I3
sVof citizens
p7672
I3
sVwarm welcome
p7673
I1
sVoil industry
p7674
I1
sVthe situation
p7675
I1
sVdesperate people
p7676
I1
sVremarkable act
p7677
I1
sVyou hawks
p7678
I1
sVother disadvantages
p7679
I1
sVsustain freedom
p7680
I1
sVsolving problems
p7681
I1
sVmy job
p7682
I3
sVapplause sure
p7683
I1
sVour game
p7684
I1
sVon them
p7685
I3
sVour spirits
p7686
I1
sVnot working
p7687
I1
sVat home
p7688
I11
sVhousing industry
p7689
I1
sVnot okay
p7690
I1
sVmy nation
p7691
I1
sVnatural gas
p7692
I2
sVme around
p7693
I1
sVs about
p7694
I1
sVthan ours
p7695
I1
sVinto poverty
p7696
I1
sVare up
p7697
I1
sVrecovery act
p7698
I1
sVan attack
p7699
I1
sVhardworking americans
p7700
I2
sVher chant
p7701
I1
sVgtmo detainees
p7702
I1
sVpolice officers
p7703
I1
sVcare physician
p7704
I1
sVfirst week
p7705
I1
sVmade mistakes
p7706
I1
sVbeen lifted
p7707
I2
sVtried us
p7708
I2
sVlift it
p7709
I1
sVconfront them
p7710
I3
sVto accept
p7711
I1
sVincentivize that
p7712
I1
sVmy own
p7713
I3
sVwas three
p7714
I1
sVputin directly
p7715
I1
sVa senator
p7716
I1
sVforgotten townships
p7717
I1
sVshattering tragedy
p7718
I1
sVgreat cities
p7719
I1
sVper se
p7720
I1
sValso prosperity
p7721
I1
sVencourage that
p7722
I2
sVknow them
p7723
I1
sVis expensive
p7724
I1
sVshould have
p7725
I1
sVreserve literally
p7726
I1
sVof relief
p7727
I1
sVit goes
p7728
I1
sVjust that
p7729
I1
sVthem through
p7730
I1
sVthat please
p7731
I1
sVof all
p7732
I1
sVlower premiums
p7733
I2
sVarlington virginia
p7734
I2
sVof recrimination
p7735
I1
sVthat system
p7736
I1
sVfellow americans
p7737
I1
sVis thriving
p7738
I2
sVcomplicated ones
p7739
I1
sVtheir feet
p7740
I5
sVreferring to
p7741
I1
sVbank bailouts
p7742
I1
sVfair look
p7743
I1
sVlike avey
p7744
I1
sVof hands
p7745
I1
sVmillion times
p7746
I2
sVin class
p7747
I1
sVseemed misplaced
p7748
I1
sVbudget cuts
p7749
I1
sVinto today
p7750
I1
sVour way
p7751
I1
sVtwo centuries
p7752
I1
sVso powerful
p7753
I1
sVboylston street
p7754
I1
sVthe alternatives
p7755
I1
sVin poverty
p7756
I2
sVthat victory
p7757
I1
sVscott said
p7758
I1
sVand see
p7759
I1
sVthen none
p7760
I1
sVfollowing areas
p7761
I1
sValready inherited
p7762
I1
sVany agreement
p7763
I1
sVand skills
p7764
I1
sVaccept it
p7765
I1
sVcommon enemy
p7766
I1
sVextraordinary optimism
p7767
I1
sVhostile populations
p7768
I1
sVmy rush
p7769
I1
sVbe higher
p7770
I3
sVdemocracy depends
p7771
I1
sVon mars
p7772
I1
sVcamp david
p7773
I1
sVbe done
p7774
I6
sVgood idea
p7775
I2
sVand negotiate
p7776
I1
sVdumb way
p7777
I1
sVof disaster
p7778
I1
sVthese days
p7779
I3
sVa compromise
p7780
I1
sVother things
p7781
I1
sVis producing
p7782
I1
sVfrom now
p7783
I9
sVas much
p7784
I2
sVlaw degree
p7785
I1
sVthe fighting
p7786
I1
sVown energy
p7787
I1
sVstudent loans
p7788
I1
sVthe answer
p7789
I1
sVthe race
p7790
I4
sVit now
p7791
I1
sVokay good
p7792
I1
sVdo together
p7793
I2
sVnot deployed
p7794
I1
sVinto office
p7795
I1
sVintimidate us
p7796
I1
sVthis idea
p7797
I1
sVlike that
p7798
I1
sVgovernment program
p7799
I1
sVmovement happens
p7800
I1
sVfrom tribe
p7801
I1
sVwe spend
p7802
I1
sVthat again
p7803
I1
sVcountry great
p7804
I1
sVonly interests
p7805
I1
sVjanet yellen
p7806
I3
sVhard decisions
p7807
I2
sVdefines them
p7808
I1
sVnow walk
p7809
I1
sVhim much
p7810
I1
sVgrowing industry
p7811
I1
sVoverseas markets
p7812
I1
sVplanet preserved
p7813
I1
sVthan wages
p7814
I1
sVanybody else
p7815
I5
sVeverybody else
p7816
I4
sVback here
p7817
I1
sVon paper
p7818
I2
sVis now
p7819
I1
sVon record
p7820
I1
sVamerican leaders
p7821
I1
sVnew boiler
p7822
I1
sVits lethality
p7823
I1
sVworld together
p7824
I1
sVs discipline
p7825
I1
sVborder safer
p7826
I1
sVa penalty
p7827
I1
sVand equipment
p7828
I1
sVthis plant
p7829
I1
sVsave lives
p7830
I1
sVof service
p7831
I1
sVproductive discussion
p7832
I1
sVracked up
p7833
I2
sVappreciation week
p7834
I1
sVand extremism
p7835
I1
sVslowing down
p7836
I1
sVbeen photoshopped
p7837
I1
sVpreventable diseases
p7838
I1
sVfrom boston
p7839
I1
sVthe road
p7840
I1
sVout there
p7841
I8
sVsecond time
p7842
I1
sVa story
p7843
I1
sVgood enough
p7844
I2
sVseizing territory
p7845
I1
sVamerican community
p7846
I1
sVa storm
p7847
I2
sVa crossroads
p7848
I2
sVof abundance
p7849
I2
sVour allies
p7850
I3
sVinterrogate them
p7851
I1
sVacross america
p7852
I2
sVused them
p7853
I1
sVlaid off
p7854
I1
sVbody armor
p7855
I1
sVs loans
p7856
I1
sVbucks each
p7857
I1
sVchoosing sides
p7858
I1
sVbyron brown
p7859
I1
sVthis habit
p7860
I1
sVtheir hometown
p7861
I1
sVnew business
p7862
I1
sVtaking pictures
p7863
I1
sVsteps yet
p7864
I1
sVthe turmoil
p7865
I1
sVtribal regions
p7866
I1
sVs antonieta
p7867
I1
sVmiddle out
p7868
I1
sVfarm bill
p7869
I1
sVfrom violence
p7870
I1
sVa wall
p7871
I1
sVevery month
p7872
I2
sVamerica takes
p7873
I1
sV25 percent
p7874
I1
sVtheir hearts
p7875
I2
sVcall from
p7876
I1
sVsee them
p7877
I1
sVoffer them
p7878
I1
sVthis stuff
p7879
I2
sVcome true
p7880
I1
sVsteady hand
p7881
I1
sVnew company
p7882
I1
sVhis resurrection
p7883
I1
sVfeeling today
p7884
I1
sVstreet crime
p7885
I1
sVand jerusalem
p7886
I1
sVwas about
p7887
I1
sVand israelis
p7888
I1
sVrookie mistakes
p7889
I1
sVthese tests
p7890
I1
sVthe budget
p7891
I1
sVon expenses
p7892
I1
sVamong us
p7893
I1
sVthey would
p7894
I1
sVenergy future
p7895
I3
sVgone wrong
p7896
I1
sVspecific example
p7897
I2
sVthe ceremony
p7898
I1
sVstrong challenges
p7899
I1
sVsevere recession
p7900
I1
sVsided ships
p7901
I1
sVlabor leaders
p7902
I1
sVnot new
p7903
I4
sVthe continent
p7904
I1
sVto succeed
p7905
I3
sVmortgage payments
p7906
I1
sVamerica safe
p7907
I1
sVthe brink
p7908
I2
sVwere unique
p7909
I1
sVcurrent system
p7910
I1
sVbeen recovered
p7911
I1
sVenergy independence
p7912
I2
sVgood news
p7913
I3
sVis appreciated
p7914
I1
sVthe finish
p7915
I1
sVproblems fixed
p7916
I1
sVsome reductions
p7917
I1
sVtheir say
p7918
I1
sVimportant thing
p7919
I1
sVmilitary spouses
p7920
I1
sVtough skin
p7921
I1
sVamericans overseas
p7922
I1
sVanything more
p7923
I1
sVbig reader
p7924
I1
sVlook forward
p7925
I1
sVanything special
p7926
I1
sVwas lucky
p7927
I1
sVwe lost
p7928
I1
sVendless debate
p7929
I1
sVgoes on
p7930
I1
sVbe here
p7931
I3
sVgood choices
p7932
I1
sVforeign policy
p7933
I1
sV16 percent
p7934
I2
sVto refinance
p7935
I1
sVimmigration bill
p7936
I1
sVa decade
p7937
I8
sVthe courtroom
p7938
I1
sV7 billion
p7939
I1
sVmovie theaters
p7940
I1
sVwe have
p7941
I1
sVclass families
p7942
I4
sVto turn
p7943
I2
sVwill end
p7944
I1
sVpoor kid
p7945
I1
sVour people
p7946
I5
sVto go
p7947
I13
sVthis economy
p7948
I1
sVvalues plummeting
p7949
I1
sVto send
p7950
I1
sVof peace
p7951
I4
sVwarming planet
p7952
I1
sVour service
p7953
I1
sVend it
p7954
I1
sVor more
p7955
I1
sVnew people
p7956
I1
sVmake lightly
p7957
I1
sVthings worse
p7958
I2
sVgo outside
p7959
I1
sVits impact
p7960
I1
sVas well
p7961
I23
sVthese streets
p7962
I1
sVjeff brower
p7963
I1
sVlove dick
p7964
I1
sVhave led
p7965
I1
sVwork better
p7966
I1
sVmorning everybody
p7967
I5
sVfor retirement
p7968
I1
sVopening statement
p7969
I1
sVand guidance
p7970
I1
sVwork done
p7971
I1
sVaccepted knowledge
p7972
I1
sValready here
p7973
I1
sVon floors
p7974
I1
sVkick in
p7975
I1
sVbipartisan majority
p7976
I1
sVfor services
p7977
I1
sVprescription medicine
p7978
I1
sVthis role
p7979
I1
sVgeneva conventions
p7980
I1
sVanother election
p7981
I1
sVancient times
p7982
I1
sVeaster season
p7983
I1
sVpopulations shift
p7984
I1
sVday off
p7985
I1
sVbe seeking
p7986
I1
sVtheir house
p7987
I1
sVamerican soil
p7988
I1
sVa website
p7989
I4
sVsteps be
p7990
I1
sVsaying it
p7991
I1
sVcompete us
p7992
I1
sVs work
p7993
I1
sVbrothers out
p7994
I1
sVfire station
p7995
I1
sVcountless generations
p7996
I1
sV20 years
p7997
I3
sVnew jobs
p7998
I7
sVopposition neighborhoods
p7999
I1
sValready come
p8000
I1
sVin minneapolis
p8001
I1
sVthose ills
p8002
I1
sVit meaning
p8003
I1
sVsome traction
p8004
I1
sVbattle extremism
p8005
I1
sVthe job
p8006
I5
sVour forebears
p8007
I1
sVmiddle east
p8008
I1
sVshared interests
p8009
I2
sVfiscal responsibility
p8010
I1
sVlong ago
p8011
I1
sVher parents
p8012
I1
sVthe day
p8013
I1
sVs it
p8014
I2
sVcarolyn goodman
p8015
I1
sVever before
p8016
I4
sVreinvestment act
p8017
I1
sVimportant partnership
p8018
I1
sVmillion americans
p8019
I1
sVa luxury
p8020
I1
sVself discipline
p8021
I1
sVon tuesday
p8022
I1
sVmust avert
p8023
I1
sVaugust 21st
p8024
I2
sVis adapt
p8025
I1
sVeretz nehederet
p8026
I1
sVedge jobs
p8027
I1
sVto know
p8028
I2
sVhello baltimore
p8029
I1
sVand competition
p8030
I1
sVthe senate
p8031
I6
sVfully inclusive
p8032
I1
sVharmed growth
p8033
I1
sVfew countries
p8034
I1
sVgovernment accountable
p8035
I1
sVnew system
p8036
I2
sVsystem work
p8037
I1
sVbetter future
p8038
I1
sVattack civilians
p8039
I1
sVof jobs
p8040
I1
sVbusiness sooner
p8041
I1
sVof salvation
p8042
I1
sVrenew agoa
p8043
I1
sVof training
p8044
I1
sVlearning together
p8045
I1
sVto nothing
p8046
I2
sVstates navy
p8047
I1
sVquick steve
p8048
I1
sVstepped up
p8049
I1
sVfor excuses
p8050
I2
sVthis cause
p8051
I1
sVprotect us
p8052
I1
sVthe kids
p8053
I2
sVlegal status
p8054
I1
sVclimate change
p8055
I7
sVand producers
p8056
I1
sVuniform instead
p8057
I1
sVour budgeting
p8058
I1
sVfinally published
p8059
I1
sVour decisions
p8060
I1
sVnotice that
p8061
I1
sVbe improved
p8062
I1
sVpretty humble
p8063
I1
sVthe solution
p8064
I1
sVvoice heard
p8065
I1
sVsomething more
p8066
I1
sVreview period
p8067
I1
sVany sense
p8068
I3
sVof tribulation
p8069
I1
sVknow it
p8070
I3
sVour hearts
p8071
I3
sVto defeat
p8072
I3
sVwill change
p8073
I2
sVamerican dream
p8074
I4
sVbased growth
p8075
I1
sVsome progress
p8076
I1
sVpartisan issue
p8077
I2
sVtime out
p8078
I1
sVevery syrian
p8079
I1
sVlive on
p8080
I2
sVour children
p8081
I6
sVgetting ahead
p8082
I1
sVthe opposition
p8083
I2
sVthis front
p8084
I1
sVis uneven
p8085
I1
sVnational interest
p8086
I1
sVhollow promise
p8087
I1
sVat guantanamo
p8088
I1
sVfrom collapse
p8089
I1
sVdifferent place
p8090
I1
sVyour feet
p8091
I1
sVof tragedy
p8092
I1
sVhis strength
p8093
I1
sVsaved lives
p8094
I1
sVgo there
p8095
I1
sVor station
p8096
I1
sVcan do
p8097
I3
sVthat investment
p8098
I1
sVnew staff
p8099
I1
sVlegitimate concern
p8100
I1
sVto increase
p8101
I1
sVabout me
p8102
I3
sVthe time
p8103
I4
sVunited kingdom
p8104
I1
sVtheir workers
p8105
I1
sVsoweto represent
p8106
I1
sVof reuters
p8107
I2
sVcivilized conduct
p8108
I1
sVin taxes
p8109
I1
sVthan that
p8110
I4
sVhuman nature
p8111
I1
sVchange something
p8112
I1
sVone third
p8113
I1
sVmore growth
p8114
I1
sVs grown
p8115
I1
sVfellow citizens
p8116
I3
sVyour activism
p8117
I1
sVthis community
p8118
I1
sVis routine
p8119
I1
sVown business
p8120
I3
sVin generations
p8121
I2
sVthe air
p8122
I2
sVthose efforts
p8123
I1
sVschool year
p8124
I1
sVlose weight
p8125
I1
sVstarted school
p8126
I1
sVthose responsibilities
p8127
I1
sVemployers accountable
p8128
I1
sVto wait
p8129
I1
sVas drones
p8130
I1
sVjustice system
p8131
I1
sVall fronts
p8132
I1
sVin years
p8133
I1
sVthe process
p8134
I2
sVtrain wreck
p8135
I1
sVyour heart
p8136
I1
sVhave insurance
p8137
I1
sVgovernment alone
p8138
I1
sVare extremists
p8139
I1
sVdismantle it
p8140
I1
sVall americans
p8141
I1
sVa union
p8142
I1
sVhomes underwater
p8143
I1
sVreal price
p8144
I1
sVlive there
p8145
I1
sVsenate unanimously
p8146
I1
sVown people
p8147
I2
sVmike froman
p8148
I1
sVthe woods
p8149
I1
sVmore vulnerable
p8150
I1
sVwill offer
p8151
I1
sVin person
p8152
I3
sVfirst place
p8153
I3
sVstatehouse dome
p8154
I1
sVdebt projections
p8155
I1
sVto operate
p8156
I1
sVchanging lives
p8157
I1
sVbenefits worldwide
p8158
I1
sVanything else
p8159
I1
sVour history
p8160
I6
sVfrom church
p8161
I1
sVprosper together
p8162
I1
sVeach year
p8163
I1
sVand learn
p8164
I1
sVpossible age
p8165
I3
sVw bush
p8166
I2
sVall righty
p8167
I1
sVrepayment is
p8168
I1
sVtheir peak
p8169
I1
sVs aged
p8170
I1
sVthan ever
p8171
I4
sVhalf
p8172
I1
sVdonate supplies
p8173
I1
sVlarger deal
p8174
I1
sVof law
p8175
I5
sVfrom occurring
p8176
I1
sVthat step
p8177
I1
sVtoo soon
p8178
I1
sVmy idea
p8179
I1
sVother way
p8180
I2
sVafrican interests
p8181
I1
sVour neighbors
p8182
I1
sVworks everybody
p8183
I1
sVa thing
p8184
I1
sVa doctor
p8185
I1
sVmilitary commissions
p8186
I1
sVi o
p8187
I2
sVhate it
p8188
I1
sVbuild america
p8189
I1
sVjohn sweeney
p8190
I1
sVdo this
p8191
I1
sVhave changed
p8192
I1
sVthem to
p8193
I1
sVs businesses
p8194
I1
sValways done
p8195
I1
sVextremist abroad
p8196
I1
sVsmart idea
p8197
I1
sVenergy policy
p8198
I1
sVin congress
p8199
I2
sVwill remain
p8200
I1
sVto fray
p8201
I1
sVof tomorrow
p8202
I2
sVunfinished business
p8203
I1
sVplants closing
p8204
I1
sVthe wall
p8205
I1
sVyear history
p8206
I1
sVdivest
p8207
I1
sVfrom aqap
p8208
I1
sVs here
p8209
I3
sVdrone strikes
p8210
I1
sVwould be
p8211
I1
sVto persevere
p8212
I1
sVall along
p8213
I1
sVsized party
p8214
I1
sVto sit
p8215
I1
sVst paul
p8216
I1
sVnext year
p8217
I1
sVpanama canal
p8218
I3
sVus together
p8219
I1
sVal qaeda
p8220
I5
sVincreased dramatically
p8221
I1
sVthe battlefield
p8222
I1
sVmolweni
p8223
I1
sVno sense
p8224
I1
sVprevented it
p8225
I1
sVnation states
p8226
I1
sVprohibited torture
p8227
I1
sVthe holocaust
p8228
I1
sVof reunification
p8229
I1
sVwas afraid
p8230
I1
sVbe achieved
p8231
I1
sVwith destruction
p8232
I1
sVthe fleet
p8233
I1
sVgrowing industries
p8234
I1
sVcamp pendleton
p8235
I2
sVby yourself
p8236
I1
sVbottom line
p8237
I3
sVimmigration system
p8238
I5
sVof millions
p8239
I1
sVnational defense
p8240
I1
sV11 attacks
p8241
I1
sVbalance sheet
p8242
I1
sVbe imperfect
p8243
I1
sVabout security
p8244
I1
sVsupportive parents
p8245
I1
sVour businesses
p8246
I1
sVlifetime limits
p8247
I1
sVpopular insurgency
p8248
I1
sVof humanity
p8249
I2
sVincludes me
p8250
I1
sVinsurance period
p8251
I1
sVhello connecticut
p8252
I1
sVyour constituencies
p8253
I1
sVt accept
p8254
I1
sVis ours
p8255
I1
sVwith us
p8256
I1
sValways been
p8257
I1
sVafternoon everybody
p8258
I1
sVpassionate about
p8259
I1
sVfreddie mac
p8260
I1
sVof syria
p8261
I1
sVwas impacted
p8262
I1
sVnongovernmental reports
p8263
I1
sVseven years
p8264
I1
sVlike drones
p8265
I1
sVmimi alemayehou
p8266
I1
sVthat followed
p8267
I1
sVwith hope
p8268
I2
sVcurrently exists
p8269
I1
sVdoing things
p8270
I2
sVreduced coverage
p8271
I1
sVand generosity
p8272
I1
sVdifferent meetings
p8273
I2
sVhere dry
p8274
I1
sVtaxpaying public
p8275
I1
sVflowing again
p8276
I1
sVnegotiating table
p8277
I1
sVmy dad
p8278
I1
sVour shoulders
p8279
I1
sVtheir support
p8280
I1
sVgoing up
p8281
I3
sVrepublicans agree
p8282
I1
sVtrust issue
p8283
I1
sVbeyond fixing
p8284
I1
sVof poverty
p8285
I4
sVsaving money
p8286
I2
sVwe will
p8287
I4
sVleadership matters
p8288
I1
sVjune 17th
p8289
I1
sVfewer people
p8290
I1
sVwere innocent
p8291
I1
sVof wealth
p8292
I1
sVnew direction
p8293
I1
sVtheir loss
p8294
I1
sVyou belong
p8295
I1
sVyour grace
p8296
I1
sVtime studying
p8297
I1
sVget sick
p8298
I3
sVto terrorists
p8299
I1
sVmilitary readiness
p8300
I2
sVwalter reed
p8301
I1
sVpresents opportunities
p8302
I1
sVyour oath
p8303
I1
sVarchbishop njongonkulu
p8304
I1
sVhey sweetie
p8305
I1
sVcenturies building
p8306
I1
sVatrocities committed
p8307
I1
sVon opportunity
p8308
I1
sVare available
p8309
I1
sVtime highs
p8310
I1
sVmillard fillmore
p8311
I1
sVs introduction
p8312
I1
sVamerica prospered
p8313
I1
sVstable world
p8314
I1
sVthe past
p8315
I3
sVsafe haven
p8316
I1
sVlarge companies
p8317
I1
sVcause another
p8318
I1
sVour growth
p8319
I2
sVstop you
p8320
I1
sVquinn here
p8321
I1
sVandy berke
p8322
I1
sVholy week
p8323
I1
sVlife care
p8324
I1
sVto zambia
p8325
I1
sVa call
p8326
I2
sVhappens overnight
p8327
I1
sVby example
p8328
I1
sVthis reform
p8329
I1
sVon today
p8330
I1
sVdistant land
p8331
I1
sVcivil rights
p8332
I2
sVa taxpayer
p8333
I1
sVme know
p8334
I1
sVcoming down
p8335
I2
sVmust we
p8336
I1
sVhard fight
p8337
I1
sVyet done
p8338
I1
sVa future
p8339
I1
sVuse violence
p8340
I1
sVsector jobs
p8341
I1
sVthey loved
p8342
I1
sVm listening
p8343
I1
sVtheir payments
p8344
I1
sVaccept this
p8345
I1
sVdifficult challenges
p8346
I1
sVfell behind
p8347
I1
sVimplement it
p8348
I1
stp8349
Rp8350
sg25
I5426
sg26
F10501.0
sbssS'_label_probdist'
p8351
g0
(g14
g2
Ntp8352
Rp8353
(dp8354
g18
F0.5
sg19
I7973
sg20
g21
((dp8355
g8
I7788
sg9
I185
stp8356
Rp8357
sg25
I2
sg26
F7974.0
sbsb.